gplink-2.2.37 (Jan 22 2024)
Listing File Generated: 2025-7-19  16:50:24
 
 
Address  Value    Disassembly              Source
-------  -----    -----------              ------
                                           ;--------------------------------------------------------
                                           ; external declarations
                                           ;--------------------------------------------------------
                                           	extern	__mullong
                                           	extern	__divulong
                                           	extern	_INDF0bits
                                           	extern	_INDF1bits
                                           	extern	_INDF2bits
                                           	extern	_HIBYTEbits
                                           	extern	_FSR0bits
                                           	extern	_FSR1bits
                                           	extern	_PCLbits
                                           	extern	_PFLAGbits
                                           	extern	_MCRbits
                                           	extern	_INDF3bits
                                           	extern	_INTEbits
                                           	extern	_INTFbits
                                           	extern	_DRVCRbits
                                           	extern	_PFRCCRbits
                                           	extern	_P1KBCRbits
                                           	extern	_PFRCCALbits
                                           	extern	_IOP0bits
                                           	extern	_OEP0bits
                                           	extern	_PUP0bits
                                           	extern	_PDP0bits
                                           	extern	_IOP1bits
                                           	extern	_OEP1bits
                                           	extern	_PUP1bits
                                           	extern	_PDP1bits
                                           	extern	_T0CRbits
                                           	extern	_T0CNTbits
                                           	extern	_T0LOADbits
                                           	extern	_T0DATAbits
                                           	extern	_T1CRbits
                                           	extern	_T1CNTbits
                                           	extern	_T1LOADbits
                                           	extern	_T1DATAbits
                                           	extern	_T2CRbits
                                           	extern	_T2CNTbits
                                           	extern	_T2LOADbits
                                           	extern	_T2DATAbits
                                           	extern	_T3CRbits
                                           	extern	_T3CNTbits
                                           	extern	_T3LOADbits
                                           	extern	_PWM0DRbits
                                           	extern	_PWM1DRbits
                                           	extern	_PWM2DRbits
                                           	extern	_PWMCR0bits
                                           	extern	_PWMCR1bits
                                           	extern	_OSCMRbits
                                           	extern	_LVDCRbits
                                           	extern	_ADCR0bits
                                           	extern	_ADCR1bits
                                           	extern	_ADCR2bits
                                           	extern	_OSADJCRbits
                                           	extern	_ADRHbits
                                           	extern	_ADRLbits
                                           	extern	_ADIOS0bits
                                           	extern	_ADIOS1bits
                                           	extern	_PMODbits
                                           	extern	_PWMCR3bits
                                           	extern	_PWMCR2bits
                                           	extern	_PFRCAUXbits
                                           	extern	_HIRCCALbits
                                           	extern	_INDF0
                                           	extern	_INDF1
                                           	extern	_INDF2
                                           	extern	_HIBYTE
                                           	extern	_FSR0
                                           	extern	_FSR1
                                           	extern	_PCL
                                           	extern	_PFLAG
                                           	extern	_MCR
                                           	extern	_INDF3
                                           	extern	_INTE
                                           	extern	_INTF
                                           	extern	_DRVCR
                                           	extern	_PFRCCR
                                           	extern	_P1KBCR
                                           	extern	_PFRCCAL
                                           	extern	_IOP0
                                           	extern	_OEP0
                                           	extern	_PUP0
                                           	extern	_PDP0
                                           	extern	_IOP1
                                           	extern	_OEP1
                                           	extern	_PUP1
                                           	extern	_PDP1
                                           	extern	_T0CR
                                           	extern	_T0CNT
                                           	extern	_T0LOAD
                                           	extern	_T0DATA
                                           	extern	_T1CR
                                           	extern	_T1CNT
                                           	extern	_T1LOAD
                                           	extern	_T1DATA
                                           	extern	_T2CR
                                           	extern	_T2CNT
                                           	extern	_T2LOAD
                                           	extern	_T2DATA
                                           	extern	_T3CR
                                           	extern	_T3CNT
                                           	extern	_T3LOAD
                                           	extern	_PWM0DR
                                           	extern	_PWM1DR
                                           	extern	_PWM2DR
                                           	extern	_PWMCR0
                                           	extern	_PWMCR1
                                           	extern	_OSCMR
                                           	extern	_LVDCR
                                           	extern	_ADCR0
                                           	extern	_ADCR1
                                           	extern	_ADCR2
                                           	extern	_OSADJCR
                                           	extern	_ADRH
                                           	extern	_ADRL
                                           	extern	_ADIOS0
                                           	extern	_ADIOS1
                                           	extern	_PMOD
                                           	extern	_PWMCR3
                                           	extern	_PWMCR2
                                           	extern	_PFRCAUX
                                           	extern	_HIRCCAL
                                           ;--------------------------------------------------------
                                           ; global declarations
                                           ;--------------------------------------------------------
                                           	global	_delay_ms
                                           	global	_CLR_RAM
                                           	global	_adc_config
                                           	global	_adc_sel_pin
                                           	global	_adc_get_val
                                           	global	_Sys_Init
                                           	global	_key_scan
                                           	global	_key_event_handle
                                           	global	_adc_scan_handle
                                           	global	_turn_dir_scan_handle
                                           	global	_shutdown_scan_handle
                                           	global	_low_power_scan_handle
                                           	global	_main
                                           	global	_int_isr
                                           	global	_key_event
                                           	global	_mode_flag
                                           	global	_key_press_flag
                                           	global	_i
                                           	global	_adc_val
                                           	global	_turn_dir_ms_cnt
                                           	global	_shut_down_ms_cnt
                                           	global	_adc_bat_val
                                           	global	_adc_charging_val
                                           	global	_max_pwm_val
                                           	global	_last_pwm_val
                                           	global	_tmp_val
                                           	global	_tmp_val_l
                                           	global	_tmp_val_cnt
                                           	global	_flag_bat_is_empty
                                           	global	_tmp_bat_val
                                           	global	_over_charging_cnt
                                           	global	_full_charge_cnt
                                           	global	_charge_time_cnt
                                           	global	_abuf
                                           	global	_statusbuf
                                           	global	_flag1
                                           	global	_flag2
                                           	global	_flag3
                                           
                                           	global STK06
                                           	global STK05
                                           	global STK04
                                           	global STK03
                                           	global STK02
                                           	global STK01
                                           	global STK00
                                           
                                           sharebank udata_ovr 0x0000
                                           STK06	res 1
                                           STK05	res 1
                                           STK04	res 1
                                           STK03	res 1
                                           STK02	res 1
                                           STK01	res 1
                                           STK00	res 1
                                           
                                           ;--------------------------------------------------------
                                           ; global definitions
                                           ;--------------------------------------------------------
                                           UD_MC32P7351_0	udata
                                           _key_event	res	1
                                           
                                           UD_MC32P7351_1	udata
                                           _mode_flag	res	1
                                           
                                           UD_MC32P7351_2	udata
                                           _key_press_flag	res	1
                                           
                                           UD_MC32P7351_3	udata
                                           _i	res	1
                                           
                                           UD_MC32P7351_4	udata
                                           _adc_val	res	2
                                           
                                           UD_MC32P7351_5	udata
                                           _turn_dir_ms_cnt	res	4
                                           
                                           UD_MC32P7351_6	udata
                                           _shut_down_ms_cnt	res	4
                                           
                                           UD_MC32P7351_7	udata
                                           _adc_bat_val	res	4
                                           
                                           UD_MC32P7351_8	udata
                                           _adc_charging_val	res	2
                                           
                                           UD_MC32P7351_9	udata
                                           _max_pwm_val	res	4
                                           
                                           UD_MC32P7351_10	udata
                                           _last_pwm_val	res	2
                                           
                                           UD_MC32P7351_11	udata
                                           _tmp_val	res	2
                                           
                                           UD_MC32P7351_12	udata
                                           _tmp_val_l	res	16
                                           
                                           UD_MC32P7351_13	udata
                                           _tmp_val_cnt	res	1
                                           
                                           UD_MC32P7351_14	udata
                                           _flag_bat_is_empty	res	1
                                           
                                           UD_MC32P7351_15	udata
                                           _tmp_bat_val	res	2
                                           
                                           UD_MC32P7351_16	udata
                                           _over_charging_cnt	res	1
                                           
                                           UD_MC32P7351_17	udata
                                           _full_charge_cnt	res	1
                                           
                                           UD_MC32P7351_18	udata
                                           _charge_time_cnt	res	4
                                           
                                           UD_MC32P7351_19	udata
                                           _abuf	res	1
                                           
                                           UD_MC32P7351_20	udata
                                           _statusbuf	res	1
                                           
                                           UD_MC32P7351_21	udata
                                           _flag1	res	1
                                           
                                           UD_MC32P7351_22	udata
                                           _flag2	res	1
                                           
                                           UD_MC32P7351_23	udata
                                           _flag3	res	1
                                           
                                           ;--------------------------------------------------------
                                           ; absolute symbol definitions
                                           ;--------------------------------------------------------
                                           ;--------------------------------------------------------
                                           ; compiler-defined variables
                                           ;--------------------------------------------------------
                                           UDL_MC32P7351_0	udata
                                           r0x104F	res	1
                                           r0x104E	res	1
                                           r0x1050	res	1
                                           r0x1051	res	1
                                           r0x1052	res	1
                                           r0x1053	res	1
                                           r0x1054	res	1
                                           r0x1055	res	1
                                           r0x1056	res	1
                                           r0x1057	res	1
                                           r0x1058	res	1
                                           r0x105A	res	1
                                           r0x1059	res	1
                                           r0x105B	res	1
                                           r0x105C	res	1
                                           r0x105D	res	1
                                           r0x105E	res	1
                                           r0x1060	res	1
                                           r0x105F	res	1
                                           r0x1061	res	1
                                           r0x1062	res	1
                                           r0x1063	res	1
                                           r0x1064	res	1
                                           r0x1065	res	1
                                           r0x1066	res	1
                                           r0x1067	res	1
                                           r0x1068	res	1
                                           _key_scan_cur_key_id_65536_33	res	1
                                           _key_scan_filter_cnt_65536_33	res	1
                                           _key_scan_filter_key_id_65536_33	res	1
                                           _key_scan_press_cnt_65536_33	res	1
                                           _key_scan_flag_is_key_mode_hold_65536_33	res	1
                                           _key_scan_last_key_id_65536_33	res	1
                                           _adc_scan_handle_cnt_65536_98	res	1
                                           _adc_scan_handle_need_charge_cnt_65536_98	res	1
                                           _main_cnt_262144_220	res	1
                                           _int_isr___1ms_cnt_196608_245	res	1
                                           _int_isr_key_scan_cnt_327680_247	res	1
                                           _int_isr_low_bat_cnt_327680_250	res	2
                                           _int_isr_shut_down_bat_cnt_327680_254	res	2
                                           _int_isr_update_current_time_cnt_327680_258	res	2
                                           _led_state	res	1
                                           _pwm_counter	res	1
                                           _breath_counter	res	1
                                           _pwm_duty	res	1
                                           _breath_direction	res	1
                                           ;--------------------------------------------------------
                                           ; initialized data
                                           ;--------------------------------------------------------
                                           
                                           ;@Allocation info for local variables in function 'delay_ms'
                                           ;@delay_ms delay_ms                  Allocated to registers ;size:2
                                           ;@delay_ms INDF0bits                 Allocated to registers ;size:1
                                           ;@delay_ms INDF1bits                 Allocated to registers ;size:1
                                           ;@delay_ms INDF2bits                 Allocated to registers ;size:1
                                           ;@delay_ms HIBYTEbits                Allocated to registers ;size:1
                                           ;@delay_ms FSR0bits                  Allocated to registers ;size:1
                                           ;@delay_ms FSR1bits                  Allocated to registers ;size:1
                                           ;@delay_ms PCLbits                   Allocated to registers ;size:1
                                           ;@delay_ms PFLAGbits                 Allocated to registers ;size:1
                                           ;@delay_ms MCRbits                   Allocated to registers ;size:1
                                           ;@delay_ms INDF3bits                 Allocated to registers ;size:1
                                           ;@delay_ms INTEbits                  Allocated to registers ;size:1
                                           ;@delay_ms INTFbits                  Allocated to registers ;size:1
                                           ;@delay_ms DRVCRbits                 Allocated to registers ;size:1
                                           ;@delay_ms PFRCCRbits                Allocated to registers ;size:1
                                           ;@delay_ms P1KBCRbits                Allocated to registers ;size:1
                                           ;@delay_ms PFRCCALbits               Allocated to registers ;size:1
                                           ;@delay_ms IOP0bits                  Allocated to registers ;size:1
                                           ;@delay_ms OEP0bits                  Allocated to registers ;size:1
                                           ;@delay_ms PUP0bits                  Allocated to registers ;size:1
                                           ;@delay_ms PDP0bits                  Allocated to registers ;size:1
                                           ;@delay_ms IOP1bits                  Allocated to registers ;size:1
                                           ;@delay_ms OEP1bits                  Allocated to registers ;size:1
                                           ;@delay_ms PUP1bits                  Allocated to registers ;size:1
                                           ;@delay_ms PDP1bits                  Allocated to registers ;size:1
                                           ;@delay_ms T0CRbits                  Allocated to registers ;size:1
                                           ;@delay_ms T0CNTbits                 Allocated to registers ;size:1
                                           ;@delay_ms T0LOADbits                Allocated to registers ;size:1
                                           ;@delay_ms T0DATAbits                Allocated to registers ;size:1
                                           ;@delay_ms T1CRbits                  Allocated to registers ;size:1
                                           ;@delay_ms T1CNTbits                 Allocated to registers ;size:1
                                           ;@delay_ms T1LOADbits                Allocated to registers ;size:1
                                           ;@delay_ms T1DATAbits                Allocated to registers ;size:1
                                           ;@delay_ms T2CRbits                  Allocated to registers ;size:1
                                           ;@delay_ms T2CNTbits                 Allocated to registers ;size:1
                                           ;@delay_ms T2LOADbits                Allocated to registers ;size:1
                                           ;@delay_ms T2DATAbits                Allocated to registers ;size:1
                                           ;@delay_ms T3CRbits                  Allocated to registers ;size:1
                                           ;@delay_ms T3CNTbits                 Allocated to registers ;size:1
                                           ;@delay_ms T3LOADbits                Allocated to registers ;size:1
                                           ;@delay_ms PWM0DRbits                Allocated to registers ;size:1
                                           ;@delay_ms PWM1DRbits                Allocated to registers ;size:1
                                           ;@delay_ms PWM2DRbits                Allocated to registers ;size:1
                                           ;@delay_ms PWMCR0bits                Allocated to registers ;size:1
                                           ;@delay_ms PWMCR1bits                Allocated to registers ;size:1
                                           ;@delay_ms OSCMRbits                 Allocated to registers ;size:1
                                           ;@delay_ms LVDCRbits                 Allocated to registers ;size:1
                                           ;@delay_ms ADCR0bits                 Allocated to registers ;size:1
                                           ;@delay_ms ADCR1bits                 Allocated to registers ;size:1
                                           ;@delay_ms ADCR2bits                 Allocated to registers ;size:1
                                           ;@delay_ms OSADJCRbits               Allocated to registers ;size:1
                                           ;@delay_ms ADRHbits                  Allocated to registers ;size:1
                                           ;@delay_ms ADRLbits                  Allocated to registers ;size:1
                                           ;@delay_ms ADIOS0bits                Allocated to registers ;size:1
                                           ;@delay_ms ADIOS1bits                Allocated to registers ;size:1
                                           ;@delay_ms PMODbits                  Allocated to registers ;size:1
                                           ;@delay_ms PWMCR3bits                Allocated to registers ;size:1
                                           ;@delay_ms PWMCR2bits                Allocated to registers ;size:1
                                           ;@delay_ms PFRCAUXbits               Allocated to registers ;size:1
                                           ;@delay_ms HIRCCALbits               Allocated to registers ;size:1
                                           ;@delay_ms key_event                 Allocated to registers ;size:1
                                           ;@delay_ms mode_flag                 Allocated to registers ;size:1
                                           ;@delay_ms key_press_flag            Allocated to registers ;size:1
                                           ;@delay_ms i                         Allocated to registers ;size:1
                                           ;@delay_ms adc_val                   Allocated to registers ;size:2
                                           ;@delay_ms turn_dir_ms_cnt           Allocated to registers ;size:4
                                           ;@delay_ms shut_down_ms_cnt          Allocated to registers ;size:4
                                           ;@delay_ms adc_bat_val               Allocated to registers ;size:4
                                           ;@delay_ms adc_charging_val          Allocated to registers ;size:2
                                           ;@delay_ms max_pwm_val               Allocated to registers ;size:4
                                           ;@delay_ms last_pwm_val              Allocated to registers ;size:2
                                           ;@delay_ms tmp_val                   Allocated to registers ;size:2
                                           ;@delay_ms tmp_val_l                 Allocated to registers ;size:16
                                           ;@delay_ms tmp_val_cnt               Allocated to registers ;size:1
                                           ;@delay_ms flag_bat_is_empty         Allocated to registers ;size:1
                                           ;@delay_ms tmp_bat_val               Allocated to registers ;size:2
                                           ;@delay_ms over_charging_cnt         Allocated to registers ;size:1
                                           ;@delay_ms full_charge_cnt           Allocated to registers ;size:1
                                           ;@delay_ms pwm_duty                  Allocated to registers ;size:1
                                           ;@delay_ms pwm_counter               Allocated to registers ;size:1
                                           ;@delay_ms breath_counter            Allocated to registers ;size:1
                                           ;@delay_ms breath_direction          Allocated to registers ;size:1
                                           ;@delay_ms led_state                 Allocated to registers ;size:1
                                           ;@delay_ms charge_time_cnt           Allocated to registers ;size:4
                                           ;@delay_ms abuf                      Allocated to registers ;size:1
                                           ;@delay_ms statusbuf                 Allocated to registers ;size:1
                                           ;@delay_ms flag1                     Allocated to registers ;size:1
                                           ;@delay_ms flag2                     Allocated to registers ;size:1
                                           ;@delay_ms flag3                     Allocated to registers ;size:1
                                           ;@delay_ms xms                       Allocated to registers ;size:2
                                           ;@delay_ms i                         Allocated to registers r0x1050 r0x1051 ;size:2
                                           ;@delay_ms INDF0                     Allocated to registers ;size:1
                                           ;@delay_ms INDF1                     Allocated to registers ;size:1
                                           ;@delay_ms INDF2                     Allocated to registers ;size:1
                                           ;@delay_ms HIBYTE                    Allocated to registers ;size:1
                                           ;@delay_ms FSR0                      Allocated to registers ;size:1
                                           ;@delay_ms FSR1                      Allocated to registers ;size:1
                                           ;@delay_ms PCL                       Allocated to registers ;size:1
                                           ;@delay_ms PFLAG                     Allocated to registers ;size:1
                                           ;@delay_ms MCR                       Allocated to registers ;size:1
                                           ;@delay_ms INDF3                     Allocated to registers ;size:1
                                           ;@delay_ms INTE                      Allocated to registers ;size:1
                                           ;@delay_ms INTF                      Allocated to registers ;size:1
                                           ;@delay_ms DRVCR                     Allocated to registers ;size:1
                                           ;@delay_ms PFRCCR                    Allocated to registers ;size:1
                                           ;@delay_ms P1KBCR                    Allocated to registers ;size:1
                                           ;@delay_ms PFRCCAL                   Allocated to registers ;size:1
                                           ;@delay_ms IOP0                      Allocated to registers ;size:1
                                           ;@delay_ms OEP0                      Allocated to registers ;size:1
                                           ;@delay_ms PUP0                      Allocated to registers ;size:1
                                           ;@delay_ms PDP0                      Allocated to registers ;size:1
                                           ;@delay_ms IOP1                      Allocated to registers ;size:1
                                           ;@delay_ms OEP1                      Allocated to registers ;size:1
                                           ;@delay_ms PUP1                      Allocated to registers ;size:1
                                           ;@delay_ms PDP1                      Allocated to registers ;size:1
                                           ;@delay_ms T0CR                      Allocated to registers ;size:1
                                           ;@delay_ms T0CNT                     Allocated to registers ;size:1
                                           ;@delay_ms T0LOAD                    Allocated to registers ;size:1
                                           ;@delay_ms T0DATA                    Allocated to registers ;size:1
                                           ;@delay_ms T1CR                      Allocated to registers ;size:1
                                           ;@delay_ms T1CNT                     Allocated to registers ;size:1
                                           ;@delay_ms T1LOAD                    Allocated to registers ;size:1
                                           ;@delay_ms T1DATA                    Allocated to registers ;size:1
                                           ;@delay_ms T2CR                      Allocated to registers ;size:1
                                           ;@delay_ms T2CNT                     Allocated to registers ;size:1
                                           ;@delay_ms T2LOAD                    Allocated to registers ;size:1
                                           ;@delay_ms T2DATA                    Allocated to registers ;size:1
                                           ;@delay_ms T3CR                      Allocated to registers ;size:1
                                           ;@delay_ms T3CNT                     Allocated to registers ;size:1
                                           ;@delay_ms T3LOAD                    Allocated to registers ;size:1
                                           ;@delay_ms PWM0DR                    Allocated to registers ;size:1
                                           ;@delay_ms PWM1DR                    Allocated to registers ;size:1
                                           ;@delay_ms PWM2DR                    Allocated to registers ;size:1
                                           ;@delay_ms PWMCR0                    Allocated to registers ;size:1
                                           ;@delay_ms PWMCR1                    Allocated to registers ;size:1
                                           ;@delay_ms OSCMR                     Allocated to registers ;size:1
                                           ;@delay_ms LVDCR                     Allocated to registers ;size:1
                                           ;@delay_ms ADCR0                     Allocated to registers ;size:1
                                           ;@delay_ms ADCR1                     Allocated to registers ;size:1
                                           ;@delay_ms ADCR2                     Allocated to registers ;size:1
                                           ;@delay_ms OSADJCR                   Allocated to registers ;size:1
                                           ;@delay_ms ADRH                      Allocated to registers ;size:1
                                           ;@delay_ms ADRL                      Allocated to registers ;size:1
                                           ;@delay_ms ADIOS0                    Allocated to registers ;size:1
                                           ;@delay_ms ADIOS1                    Allocated to registers ;size:1
                                           ;@delay_ms PMOD                      Allocated to registers ;size:1
                                           ;@delay_ms PWMCR3                    Allocated to registers ;size:1
                                           ;@delay_ms PWMCR2                    Allocated to registers ;size:1
                                           ;@delay_ms PFRCAUX                   Allocated to registers ;size:1
                                           ;@delay_ms HIRCCAL                   Allocated to registers ;size:1
                                           ;@end Allocation info for local variables in function 'delay_ms';
                                           ;@Allocation info for local variables in function 'CLR_RAM'
                                           ;@end Allocation info for local variables in function 'CLR_RAM';
                                           ;@Allocation info for local variables in function 'adc_config'
                                           ;@end Allocation info for local variables in function 'adc_config';
                                           ;@Allocation info for local variables in function 'adc_sel_pin'
                                           ;@adc_sel_pin adc_pin                   Allocated to registers r0x1054 ;size:1
                                           ;@end Allocation info for local variables in function 'adc_sel_pin';
                                           ;@Allocation info for local variables in function 'adc_get_val'
                                           ;@adc_get_val i                         Allocated to registers r0x1056 ;size:1
                                           ;@adc_get_val g_temp_value              Allocated to registers r0x1057 r0x1058 ;size:2
                                           ;@adc_get_val g_tmpbuff                 Allocated to registers r0x1052 r0x1053 r0x1059 r0x105B ;size:4
                                           ;@adc_get_val g_adcmax                  Allocated to registers r0x1052 r0x1053 ;size:2
                                           ;@adc_get_val g_adcmin                  Allocated to registers r0x1054 r0x1055 ;size:2
                                           ;@end Allocation info for local variables in function 'adc_get_val';
                                           ;@Allocation info for local variables in function 'Sys_Init'
                                           ;@end Allocation info for local variables in function 'Sys_Init';
                                           ;@Allocation info for local variables in function 'key_scan'
                                           ;@key_scan last_key_id               Allocated to registers ;size:1
                                           ;@key_scan press_cnt                 Allocated to registers ;size:1
                                           ;@key_scan filter_cnt                Allocated to registers ;size:1
                                           ;@key_scan filter_key_id             Allocated to registers ;size:1
                                           ;@key_scan cur_key_id                Allocated to registers ;size:1
                                           ;@key_scan flag_is_key_mode_hold     Allocated to registers ;size:1
                                           ;@end Allocation info for local variables in function 'key_scan';
                                           ;@Allocation info for local variables in function 'key_scan'
                                           ;@key_scan last_key_id               Allocated to registers ;size:1
                                           ;@key_scan press_cnt                 Allocated to registers ;size:1
                                           ;@key_scan filter_cnt                Allocated to registers ;size:1
                                           ;@key_scan filter_key_id             Allocated to registers ;size:1
                                           ;@key_scan cur_key_id                Allocated to registers ;size:1
                                           ;@key_scan flag_is_key_mode_hold     Allocated to registers ;size:1
                                           ;@end Allocation info for local variables in function 'key_scan';
                                           ;@Allocation info for local variables in function 'key_event_handle'
                                           ;@end Allocation info for local variables in function 'key_event_handle';
                                           ;@Allocation info for local variables in function 'adc_scan_handle'
                                           ;@adc_scan_handle cnt                       Allocated to registers ;size:1
                                           ;@adc_scan_handle need_charge_cnt           Allocated to registers ;size:1
                                           ;@end Allocation info for local variables in function 'adc_scan_handle';
                                           ;@Allocation info for local variables in function 'turn_dir_scan_handle'
                                           ;@end Allocation info for local variables in function 'turn_dir_scan_handle';
                                           ;@Allocation info for local variables in function 'shutdown_scan_handle'
                                           ;@end Allocation info for local variables in function 'shutdown_scan_handle';
                                           ;@Allocation info for local variables in function 'low_power_scan_handle'
                                           ;@end Allocation info for local variables in function 'low_power_scan_handle';
                                           ;@Allocation info for local variables in function 'main'
                                           ;@main i                         Allocated to registers r0x105D r0x105E ;size:2
                                           ;@main i                         Allocated to registers r0x105D r0x105E ;size:2
                                           ;@main cnt                       Allocated to registers ;size:1
                                           ;@end Allocation info for local variables in function 'main';
                                           ;@Allocation info for local variables in function 'int_isr'
                                           ;@int_isr __1ms_cnt                 Allocated to registers ;size:1
                                           ;@int_isr key_scan_cnt              Allocated to registers ;size:1
                                           ;@int_isr low_bat_cnt               Allocated to registers ;size:2
                                           ;@int_isr shut_down_bat_cnt         Allocated to registers ;size:2
                                           ;@int_isr update_current_time_cnt   Allocated to registers ;size:2
                                           ;@end Allocation info for local variables in function 'int_isr';
                                           
                                           ;--------------------------------------------------------
                                           ; overlayable items in internal ram 
                                           ;--------------------------------------------------------
                                           ;	udata_ovr
                                           ;--------------------------------------------------------
                                           ; reset vector 
                                           ;--------------------------------------------------------
                                           STARTUP	code 0x0000
000000   a0af     goto    0xaf             	goto	_main
                                           ;--------------------------------------------------------
                                           ; interrupt and initialization code
                                           ;--------------------------------------------------------
                                           c_interrupt	code	0x8
                                           __sdcc_interrupt
                                           ;***
                                           ;  pBlock Stats: dbName = I
                                           ;***
                                           ;entry:  _int_isr	;Function start
                                           ; 0 exit points
                                           ;functions called:
                                           ;   _key_scan
                                           ;   _key_scan
                                           ;2 compiler assigned registers:
                                           ;   r0x1067
                                           ;   r0x1068
                                           ;; Starting pCode block
                                           _int_isr	;Function start
                                           ; 0 exit points
                                           ;	.line	1516; "MC32P7351.c"	__endasm;
                                           	;
000008   568f     movra   0x8f             	movra	_abuf;
000009   4587     swapar  0x187            	swapar	_PFLAG;
00000a   5690     movra   0x90             	movra	_statusbuf;
                                           	
                                           ;	.line	1523; "MC32P7351.c"	if (T3IF & T3IE)
00000b   7620     clrr    0x20             	CLRR	r0x1067
00000c   ff8b     jbclr   0x18b, 0x7       	JBCLR	_INTFbits,7
00000d   6620     incr    0x20             	INCR	r0x1067
00000e   7621     clrr    0x21             	CLRR	r0x1068
00000f   ff8a     jbclr   0x18a, 0x7       	JBCLR	_INTEbits,7
000010   6621     incr    0x21             	INCR	r0x1068
000011   5821     movar   0x21             	MOVAR	r0x1068
000012   7a20     andra   0x20             	ANDRA	r0x1067
000013   3c00     movai   0                	MOVAI	0x00
000014   5c20     orar    0x20             	ORAR	r0x1067
000015   f587     jbclr   0x187, 0x2       	JBCLR	PFLAG,2
000016   a0aa     goto    0xaa             	GOTO	_01082_DS_
                                           ;	.line	1527; "MC32P7351.c"	__1ms_cnt++;
000017   662b     incr    0x2b             	INCR	_int_isr___1ms_cnt_196608_245
                                           ;;unsigned compare: left < lit(0xA=10), size=1
                                           ;	.line	1528; "MC32P7351.c"	if (__1ms_cnt >= 10)
000018   3c0a     movai   0xa              	MOVAI	0x0a
000019   482b     rsubar  0x2b             	RSUBAR	_int_isr___1ms_cnt_196608_245
00001a   e187     jbset   0x187, 0         	JBSET	PFLAG,0
00001b   a072     goto    0x72             	GOTO	_01058_DS_
                                           ;;genSkipc:3291: created from rifx:013B5EFC
                                           ;	.line	1530; "MC32P7351.c"	__1ms_cnt = 0;
00001c   762b     clrr    0x2b             	CLRR	_int_isr___1ms_cnt_196608_245
                                           ;	.line	1534; "MC32P7351.c"	key_scan_cnt++;
00001d   662c     incr    0x2c             	INCR	_int_isr_key_scan_cnt_327680_247
                                           ;;unsigned compare: left < lit(0xA=10), size=1
                                           ;	.line	1535; "MC32P7351.c"	if (key_scan_cnt >= 10)
00001e   3c0a     movai   0xa              	MOVAI	0x0a
00001f   482c     rsubar  0x2c             	RSUBAR	_int_isr_key_scan_cnt_327680_247
000020   e187     jbset   0x187, 0         	JBSET	PFLAG,0
000021   a024     goto    0x24             	GOTO	_01040_DS_
                                           ;;genSkipc:3291: created from rifx:013B5EFC
                                           ;	.line	1537; "MC32P7351.c"	key_scan_cnt = 0;
000022   762c     clrr    0x2c             	CLRR	_int_isr_key_scan_cnt_327680_247
                                           ;	.line	1538; "MC32P7351.c"	key_scan();
000023   8556     call    0x556            	CALL	_key_scan
                                           _01040_DS_
                                           ;	.line	1542; "MC32P7351.c"	if (FLAG_IS_DEVICE_OPEN)
000024   e091     jbset   0x91, 0          	JBSET	_flag1,0
000025   a034     goto    0x34             	GOTO	_01042_DS_
                                           ;	.line	1544; "MC32P7351.c"	turn_dir_ms_cnt++;  // 会在 turn_dir_scan_handle() 内处理并清零
000026   6669     incr    0x69             	INCR	_turn_dir_ms_cnt
000027   f587     jbclr   0x187, 0x2       	JBCLR	PFLAG,2
000028   666a     incr    0x6a             	INCR	(_turn_dir_ms_cnt + 1)
000029   f587     jbclr   0x187, 0x2       	JBCLR	PFLAG,2
00002a   666b     incr    0x6b             	INCR	(_turn_dir_ms_cnt + 2)
00002b   f587     jbclr   0x187, 0x2       	JBCLR	PFLAG,2
00002c   666c     incr    0x6c             	INCR	(_turn_dir_ms_cnt + 3)
                                           ;	.line	1545; "MC32P7351.c"	shut_down_ms_cnt++; // 会在 shutdown_scan_handle() 内处理并清零
00002d   666d     incr    0x6d             	INCR	_shut_down_ms_cnt
00002e   f587     jbclr   0x187, 0x2       	JBCLR	PFLAG,2
00002f   666e     incr    0x6e             	INCR	(_shut_down_ms_cnt + 1)
000030   f587     jbclr   0x187, 0x2       	JBCLR	PFLAG,2
000031   666f     incr    0x6f             	INCR	(_shut_down_ms_cnt + 2)
000032   f587     jbclr   0x187, 0x2       	JBCLR	PFLAG,2
000033   6670     incr    0x70             	INCR	(_shut_down_ms_cnt + 3)
                                           _01042_DS_
                                           ;	.line	1552; "MC32P7351.c"	if (flag_maybe_low_battery)
000034   e493     jbset   0x93, 0x2        	JBSET	_flag3,2
000035   a045     goto    0x45             	GOTO	_01046_DS_
                                           ;	.line	1554; "MC32P7351.c"	low_bat_cnt++;
000036   662d     incr    0x2d             	INCR	_int_isr_low_bat_cnt_327680_250
000037   f587     jbclr   0x187, 0x2       	JBCLR	PFLAG,2
000038   662e     incr    0x2e             	INCR	(_int_isr_low_bat_cnt_327680_250 + 1)
                                           ;;unsigned compare: left < lit(0x1388=5000), size=2
                                           ;	.line	1556; "MC32P7351.c"	if (low_bat_cnt >= 5000) // xx ms
000039   3c13     movai   0x13             	MOVAI	0x13
00003a   482e     rsubar  0x2e             	RSUBAR	(_int_isr_low_bat_cnt_327680_250 + 1)
00003b   e587     jbset   0x187, 0x2       	JBSET	PFLAG,2
00003c   a03f     goto    0x3f             	GOTO	_01167_DS_
00003d   3c88     movai   0x88             	MOVAI	0x88
00003e   482d     rsubar  0x2d             	RSUBAR	_int_isr_low_bat_cnt_327680_250
                                           _01167_DS_
00003f   e187     jbset   0x187, 0         	JBSET	PFLAG,0
000040   a047     goto    0x47             	GOTO	_01047_DS_
                                           ;;genSkipc:3291: created from rifx:013B5EFC
                                           ;	.line	1558; "MC32P7351.c"	low_bat_cnt = 0;
000041   762d     clrr    0x2d             	CLRR	_int_isr_low_bat_cnt_327680_250
000042   762e     clrr    0x2e             	CLRR	(_int_isr_low_bat_cnt_327680_250 + 1)
                                           ;	.line	1559; "MC32P7351.c"	flag_is_low_battery = 1;
000043   c492     bset    0x92, 0x2        	BSET	_flag2,2
000044   a047     goto    0x47             	GOTO	_01047_DS_
                                           _01046_DS_
                                           ;	.line	1564; "MC32P7351.c"	low_bat_cnt = 0;
000045   762d     clrr    0x2d             	CLRR	_int_isr_low_bat_cnt_327680_250
000046   762e     clrr    0x2e             	CLRR	(_int_isr_low_bat_cnt_327680_250 + 1)
                                           _01047_DS_
                                           ;	.line	1583; "MC32P7351.c"	if (flag_tim_scan_maybe_shut_down)
000047   e693     jbset   0x93, 0x3        	JBSET	_flag3,3
000048   a058     goto    0x58             	GOTO	_01051_DS_
                                           ;	.line	1585; "MC32P7351.c"	shut_down_bat_cnt++;
000049   662f     incr    0x2f             	INCR	_int_isr_shut_down_bat_cnt_327680_254
00004a   f587     jbclr   0x187, 0x2       	JBCLR	PFLAG,2
00004b   6630     incr    0x30             	INCR	(_int_isr_shut_down_bat_cnt_327680_254 + 1)
                                           ;;unsigned compare: left < lit(0x3E8=1000), size=2
                                           ;	.line	1586; "MC32P7351.c"	if (shut_down_bat_cnt >= 1000) // xx ms
00004c   3c03     movai   0x3              	MOVAI	0x03
00004d   4830     rsubar  0x30             	RSUBAR	(_int_isr_shut_down_bat_cnt_327680_254 + 1)
00004e   e587     jbset   0x187, 0x2       	JBSET	PFLAG,2
00004f   a052     goto    0x52             	GOTO	_01168_DS_
000050   3ce8     movai   0xe8             	MOVAI	0xe8
000051   482f     rsubar  0x2f             	RSUBAR	_int_isr_shut_down_bat_cnt_327680_254
                                           _01168_DS_
000052   e187     jbset   0x187, 0         	JBSET	PFLAG,0
000053   a05b     goto    0x5b             	GOTO	_01052_DS_
                                           ;;genSkipc:3291: created from rifx:013B5EFC
                                           ;	.line	1588; "MC32P7351.c"	shut_down_bat_cnt = 0;
000054   762f     clrr    0x2f             	CLRR	_int_isr_shut_down_bat_cnt_327680_254
000055   7630     clrr    0x30             	CLRR	(_int_isr_shut_down_bat_cnt_327680_254 + 1)
                                           ;	.line	1589; "MC32P7351.c"	flag_is_needed_shut_down = 1;
000056   c893     bset    0x93, 0x4        	BSET	_flag3,4
000057   a05b     goto    0x5b             	GOTO	_01052_DS_
                                           _01051_DS_
                                           ;	.line	1594; "MC32P7351.c"	shut_down_bat_cnt = 0;
000058   762f     clrr    0x2f             	CLRR	_int_isr_shut_down_bat_cnt_327680_254
000059   7630     clrr    0x30             	CLRR	(_int_isr_shut_down_bat_cnt_327680_254 + 1)
                                           ;	.line	1595; "MC32P7351.c"	flag_is_needed_shut_down = 0;
00005a   d893     bclr    0x93, 0x4        	BCLR	_flag3,4
                                           _01052_DS_
                                           ;	.line	1601; "MC32P7351.c"	if (FLAG_IS_IN_CHARGING)
00005b   e491     jbset   0x91, 0x2        	JBSET	_flag1,2
00005c   a072     goto    0x72             	GOTO	_01058_DS_
                                           ;	.line	1603; "MC32P7351.c"	update_current_time_cnt++;
00005d   6631     incr    0x31             	INCR	_int_isr_update_current_time_cnt_327680_258
00005e   f587     jbclr   0x187, 0x2       	JBCLR	PFLAG,2
00005f   6632     incr    0x32             	INCR	(_int_isr_update_current_time_cnt_327680_258 + 1)
                                           ;;unsigned compare: left < lit(0x1F4=500), size=2
                                           ;	.line	1604; "MC32P7351.c"	if (update_current_time_cnt >= 500)
000060   3c01     movai   0x1              	MOVAI	0x01
000061   4832     rsubar  0x32             	RSUBAR	(_int_isr_update_current_time_cnt_327680_258 + 1)
000062   e587     jbset   0x187, 0x2       	JBSET	PFLAG,2
000063   a066     goto    0x66             	GOTO	_01169_DS_
000064   3cf4     movai   0xf4             	MOVAI	0xf4
000065   4831     rsubar  0x31             	RSUBAR	_int_isr_update_current_time_cnt_327680_258
                                           _01169_DS_
000066   e187     jbset   0x187, 0         	JBSET	PFLAG,0
000067   a06b     goto    0x6b             	GOTO	_01054_DS_
                                           ;;genSkipc:3291: created from rifx:013B5EFC
                                           ;	.line	1606; "MC32P7351.c"	update_current_time_cnt = 0;
000068   7631     clrr    0x31             	CLRR	_int_isr_update_current_time_cnt_327680_258
000069   7632     clrr    0x32             	CLRR	(_int_isr_update_current_time_cnt_327680_258 + 1)
                                           ;	.line	1607; "MC32P7351.c"	flag_is_update_current = 1;
00006a   ca93     bset    0x93, 0x5        	BSET	_flag3,5
                                           _01054_DS_
                                           ;	.line	1610; "MC32P7351.c"	charge_time_cnt++;
00006b   6679     incr    0x79             	INCR	_charge_time_cnt
00006c   f587     jbclr   0x187, 0x2       	JBCLR	PFLAG,2
00006d   667a     incr    0x7a             	INCR	(_charge_time_cnt + 1)
00006e   f587     jbclr   0x187, 0x2       	JBCLR	PFLAG,2
00006f   667b     incr    0x7b             	INCR	(_charge_time_cnt + 2)
000070   f587     jbclr   0x187, 0x2       	JBCLR	PFLAG,2
000071   667c     incr    0x7c             	INCR	(_charge_time_cnt + 3)
                                           _01058_DS_
                                           ;	.line	1622; "MC32P7351.c"	if (FLAG_IS_IN_CHARGING && 0 == FLAG_BAT_IS_FULL && 0 == flag_is_led_breath_disable)
000072   e491     jbset   0x91, 0x2        	JBSET	_flag1,2
000073   a0a9     goto    0xa9             	GOTO	_01078_DS_
000074   fa91     jbclr   0x91, 0x5        	JBCLR	_flag1,5
000075   a0a9     goto    0xa9             	GOTO	_01078_DS_
000076   fc93     jbclr   0x93, 0x6        	JBCLR	_flag3,6
000077   a0a9     goto    0xa9             	GOTO	_01078_DS_
                                           ;	.line	1625; "MC32P7351.c"	if (pwm_counter < pwm_duty)
000078   5836     movar   0x36             	MOVAR	_pwm_duty
000079   4834     rsubar  0x34             	RSUBAR	_pwm_counter
00007a   f187     jbclr   0x187, 0         	JBCLR	PFLAG,0
00007b   a07f     goto    0x7f             	GOTO	_01060_DS_
                                           ;;genSkipc:3291: created from rifx:013B5EFC
                                           ;	.line	1627; "MC32P7351.c"	led_state = 1; // LED亮
00007c   3c01     movai   0x1              	MOVAI	0x01
00007d   5633     movra   0x33             	MOVRA	_led_state
00007e   a080     goto    0x80             	GOTO	_01061_DS_
                                           _01060_DS_
                                           ;	.line	1631; "MC32P7351.c"	led_state = 0; // LED灭
00007f   7633     clrr    0x33             	CLRR	_led_state
                                           _01061_DS_
                                           ;	.line	1635; "MC32P7351.c"	pwm_counter++;
000080   6634     incr    0x34             	INCR	_pwm_counter
                                           ;;unsigned compare: left < lit(0x64=100), size=1
                                           ;	.line	1636; "MC32P7351.c"	if (pwm_counter >= PWM_MAX_LEVEL)
000081   3c64     movai   0x64             	MOVAI	0x64
000082   4834     rsubar  0x34             	RSUBAR	_pwm_counter
000083   e187     jbset   0x187, 0         	JBSET	PFLAG,0
000084   a086     goto    0x86             	GOTO	_01063_DS_
                                           ;;genSkipc:3291: created from rifx:013B5EFC
                                           ;	.line	1638; "MC32P7351.c"	pwm_counter = 0;
000085   7634     clrr    0x34             	CLRR	_pwm_counter
                                           _01063_DS_
                                           ;	.line	1642; "MC32P7351.c"	breath_counter++;
000086   6635     incr    0x35             	INCR	_breath_counter
                                           ;;unsigned compare: left < lit(0xC8=200), size=1
                                           ;	.line	1643; "MC32P7351.c"	if (breath_counter >= BREATH_PERIOD)
000087   3cc8     movai   0xc8             	MOVAI	0xc8
000088   4835     rsubar  0x35             	RSUBAR	_breath_counter
000089   e187     jbset   0x187, 0         	JBSET	PFLAG,0
00008a   a0a2     goto    0xa2             	GOTO	_01073_DS_
                                           ;;genSkipc:3291: created from rifx:013B5EFC
                                           ;	.line	1645; "MC32P7351.c"	breath_counter = 0;
00008b   7635     clrr    0x35             	CLRR	_breath_counter
                                           ;	.line	1648; "MC32P7351.c"	if (breath_direction == 0)
00008c   3c00     movai   0                	MOVAI	0x00
00008d   5c37     orar    0x37             	ORAR	_breath_direction
00008e   e587     jbset   0x187, 0x2       	JBSET	PFLAG,2
00008f   a09a     goto    0x9a             	GOTO	_01070_DS_
                                           ;	.line	1651; "MC32P7351.c"	pwm_duty++;
000090   6636     incr    0x36             	INCR	_pwm_duty
                                           ;;unsigned compare: left < lit(0x64=100), size=1
                                           ;	.line	1652; "MC32P7351.c"	if (pwm_duty >= PWM_MAX_LEVEL)
000091   3c64     movai   0x64             	MOVAI	0x64
000092   4836     rsubar  0x36             	RSUBAR	_pwm_duty
000093   e187     jbset   0x187, 0         	JBSET	PFLAG,0
000094   a0a2     goto    0xa2             	GOTO	_01073_DS_
                                           ;;genSkipc:3291: created from rifx:013B5EFC
                                           ;	.line	1654; "MC32P7351.c"	pwm_duty = PWM_MAX_LEVEL;
000095   3c64     movai   0x64             	MOVAI	0x64
000096   5636     movra   0x36             	MOVRA	_pwm_duty
                                           ;	.line	1655; "MC32P7351.c"	breath_direction = 1; // 切换到渐暗
000097   3c01     movai   0x1              	MOVAI	0x01
000098   5637     movra   0x37             	MOVRA	_breath_direction
000099   a0a2     goto    0xa2             	GOTO	_01073_DS_
                                           _01070_DS_
                                           ;	.line	1661; "MC32P7351.c"	if (pwm_duty > 0)
00009a   3c00     movai   0                	MOVAI	0x00
00009b   5c36     orar    0x36             	ORAR	_pwm_duty
00009c   f587     jbclr   0x187, 0x2       	JBCLR	PFLAG,2
00009d   a0a0     goto    0xa0             	GOTO	_01067_DS_
                                           ;	.line	1663; "MC32P7351.c"	pwm_duty--;
00009e   6e36     decr    0x36             	DECR	_pwm_duty
00009f   a0a2     goto    0xa2             	GOTO	_01073_DS_
                                           _01067_DS_
                                           ;	.line	1667; "MC32P7351.c"	pwm_duty = 0;
0000a0   7636     clrr    0x36             	CLRR	_pwm_duty
                                           ;	.line	1668; "MC32P7351.c"	breath_direction = 0; // 切换到渐亮
0000a1   7637     clrr    0x37             	CLRR	_breath_direction
                                           _01073_DS_
                                           ;	.line	1675; "MC32P7351.c"	if (led_state)
0000a2   3c00     movai   0                	MOVAI	0x00
0000a3   5c33     orar    0x33             	ORAR	_led_state
0000a4   f587     jbclr   0x187, 0x2       	JBCLR	PFLAG,2
0000a5   a0a8     goto    0xa8             	GOTO	_01075_DS_
                                           ;	.line	1677; "MC32P7351.c"	LED_CHARGING_PIN = LED_ON;
0000a6   d990     bclr    0x190, 0x4       	BCLR	_IOP0bits,4
0000a7   a0a9     goto    0xa9             	GOTO	_01078_DS_
                                           _01075_DS_
                                           ;	.line	1681; "MC32P7351.c"	LED_CHARGING_PIN = LED_OFF;
0000a8   c990     bset    0x190, 0x4       	BSET	_IOP0bits,4
                                           _01078_DS_
                                           ;	.line	1685; "MC32P7351.c"	T3IF = 0;
0000a9   df8b     bclr    0x18b, 0x7       	BCLR	_INTFbits,7
                                           _01082_DS_
                                           ;	.line	1693; "MC32P7351.c"	__endasm;
                                           	;
0000aa   4490     swapar  0x90             	swapar	_statusbuf;
0000ab   5787     movra   0x187            	movra	_PFLAG;
0000ac   468f     swapr   0x8f             	swapr	_abuf;
0000ad   448f     swapar  0x8f             	swapar	_abuf;
                                           	
                                           END_OF_INTERRUPT
                                           ;	.line	1694; "MC32P7351.c"	}
0000ae   000d     retie                    	RETIE	
                                           
                                           ;--------------------------------------------------------
                                           ; code
                                           ;--------------------------------------------------------
                                           code_MC32P7351	code
                                           ;***
                                           ;  pBlock Stats: dbName = M
                                           ;***
                                           ;entry:  _main	;Function start
                                           ; 2 exit points
                                           ;has an exit
                                           ;functions called:
                                           ;   _Sys_Init
                                           ;   _adc_sel_pin
                                           ;   _adc_get_val
                                           ;   _delay_ms
                                           ;   _delay_ms
                                           ;   _key_event_handle
                                           ;   _adc_scan_handle
                                           ;   _turn_dir_scan_handle
                                           ;   _shutdown_scan_handle
                                           ;   __mullong
                                           ;   __divulong
                                           ;   __mullong
                                           ;   __mullong
                                           ;   __divulong
                                           ;   __divulong
                                           ;   _delay_ms
                                           ;   _delay_ms
                                           ;   _key_event_handle
                                           ;   _delay_ms
                                           ;   _key_event_handle
                                           ;   _delay_ms
                                           ;   _low_power_scan_handle
                                           ;   _Sys_Init
                                           ;   _adc_sel_pin
                                           ;   _adc_get_val
                                           ;   _delay_ms
                                           ;   _delay_ms
                                           ;   _key_event_handle
                                           ;   _adc_scan_handle
                                           ;   _turn_dir_scan_handle
                                           ;   _shutdown_scan_handle
                                           ;   __mullong
                                           ;   __divulong
                                           ;   __mullong
                                           ;   __mullong
                                           ;   __divulong
                                           ;   __divulong
                                           ;   _delay_ms
                                           ;   _delay_ms
                                           ;   _key_event_handle
                                           ;   _delay_ms
                                           ;   _key_event_handle
                                           ;   _delay_ms
                                           ;   _low_power_scan_handle
                                           ;17 compiler assigned registers:
                                           ;   STK00
                                           ;   r0x105D
                                           ;   r0x105E
                                           ;   STK06
                                           ;   STK05
                                           ;   STK04
                                           ;   STK03
                                           ;   STK02
                                           ;   STK01
                                           ;   r0x105F
                                           ;   r0x1060
                                           ;   r0x1061
                                           ;   r0x1062
                                           ;   r0x1063
                                           ;   r0x1064
                                           ;   r0x1065
                                           ;   r0x1066
                                           ;; Starting pCode block
                                           _main	;Function start
                                           ; 2 exit points
                                           ;	.line	1079; "MC32P7351.c"	Sys_Init();
0000af   85c1     call    0x5c1            	CALL	_Sys_Init
                                           ;	.line	1086; "MC32P7351.c"	PWM2EC = 1; // 打开控制升压电路的pwm
0000b0   cda0     bset    0x1a0, 0x6       	BSET	_T2CRbits,6
                                           ;	.line	1087; "MC32P7351.c"	T2DATA = 100;
0000b1   3c64     movai   0x64             	MOVAI	0x64
0000b2   57a3     movra   0x1a3            	MOVRA	_T2DATA
                                           ;	.line	1088; "MC32P7351.c"	adc_sel_pin(ADC_PIN_P02_AN1); // 切换到检测电池降压后的电压的检测引脚
0000b3   3c02     movai   0x2              	MOVAI	0x02
0000b4   8695     call    0x695            	CALL	_adc_sel_pin
                                           ;	.line	1089; "MC32P7351.c"	for (i = 0; i < 10; i++)      // 每55ms进入一次，循环内每次间隔约4.8ms
0000b5   768a     clrr    0x8a             	CLRR	_i
                                           ;;unsigned compare: left < lit(0xA=10), size=1
                                           _00882_DS_
0000b6   3c0a     movai   0xa              	MOVAI	0x0a
0000b7   488a     rsubar  0x8a             	RSUBAR	_i
0000b8   f187     jbclr   0x187, 0         	JBCLR	PFLAG,0
0000b9   a0cb     goto    0xcb             	GOTO	_00817_DS_
                                           ;;genSkipc:3291: created from rifx:013B5EFC
                                           ;	.line	1091; "MC32P7351.c"	adc_val = adc_get_val();
0000ba   85f8     call    0x5f8            	CALL	_adc_get_val
0000bb   567e     movra   0x7e             	MOVRA	(_adc_val + 1)
0000bc   5806     movar   0x6              	MOVAR	STK00
0000bd   567d     movra   0x7d             	MOVRA	_adc_val
                                           ;;unsigned compare: left < lit(0xF52=3922), size=2
                                           ;	.line	1092; "MC32P7351.c"	if (adc_val >= ADCDETECT_BAT_FULL + ADCDETECT_BAT_NULL_EX)
0000be   3c0f     movai   0xf              	MOVAI	0x0f
0000bf   487e     rsubar  0x7e             	RSUBAR	(_adc_val + 1)
0000c0   e587     jbset   0x187, 0x2       	JBSET	PFLAG,2
0000c1   a0c4     goto    0xc4             	GOTO	_01018_DS_
0000c2   3c52     movai   0x52             	MOVAI	0x52
0000c3   487d     rsubar  0x7d             	RSUBAR	_adc_val
                                           _01018_DS_
0000c4   e187     jbset   0x187, 0         	JBSET	PFLAG,0
0000c5   a0c9     goto    0xc9             	GOTO	_00883_DS_
                                           ;;genSkipc:3291: created from rifx:013B5EFC
                                           ;	.line	1094; "MC32P7351.c"	flag_bat_is_empty = 1;
0000c6   3c01     movai   0x1              	MOVAI	0x01
0000c7   568c     movra   0x8c             	MOVRA	_flag_bat_is_empty
                                           ;	.line	1095; "MC32P7351.c"	FLAG_DURING_CHARGING_BAT_IS_NULL = 1; // 标志位置一，在主循环让绿灯快闪
0000c8   ce91     bset    0x91, 0x7        	BSET	_flag1,7
                                           _00883_DS_
                                           ;	.line	1089; "MC32P7351.c"	for (i = 0; i < 10; i++)      // 每55ms进入一次，循环内每次间隔约4.8ms
0000c9   668a     incr    0x8a             	INCR	_i
0000ca   a0b6     goto    0xb6             	GOTO	_00882_DS_
                                           _00817_DS_
                                           ;	.line	1098; "MC32P7351.c"	PWM2EC = 0; // 关闭控制升压电路的pwm
0000cb   dda0     bclr    0x1a0, 0x6       	BCLR	_T2CRbits,6
                                           ;	.line	1099; "MC32P7351.c"	T2DATA = 0;
0000cc   77a3     clrr    0x1a3            	CLRR	_T2DATA
                                           _00879_DS_
                                           ;	.line	1108; "MC32P7351.c"	if (flag_bat_is_empty)
0000cd   3c00     movai   0                	MOVAI	0x00
0000ce   5c8c     orar    0x8c             	ORAR	_flag_bat_is_empty
0000cf   f587     jbclr   0x187, 0x2       	JBCLR	PFLAG,2
0000d0   a0dc     goto    0xdc             	GOTO	_00819_DS_
                                           ;	.line	1111; "MC32P7351.c"	LED_CHARGING_PIN = LED_ON;
0000d1   d990     bclr    0x190, 0x4       	BCLR	_IOP0bits,4
                                           ;	.line	1112; "MC32P7351.c"	delay_ms(500);
0000d2   3cf4     movai   0xf4             	MOVAI	0xf4
0000d3   5606     movra   0x6              	MOVRA	STK00
0000d4   3c01     movai   0x1              	MOVAI	0x01
0000d5   86c4     call    0x6c4            	CALL	_delay_ms
                                           ;	.line	1113; "MC32P7351.c"	LED_CHARGING_PIN = LED_OFF;
0000d6   c990     bset    0x190, 0x4       	BSET	_IOP0bits,4
                                           ;	.line	1114; "MC32P7351.c"	delay_ms(500);
0000d7   3cf4     movai   0xf4             	MOVAI	0xf4
0000d8   5606     movra   0x6              	MOVRA	STK00
0000d9   3c01     movai   0x1              	MOVAI	0x01
0000da   86c4     call    0x6c4            	CALL	_delay_ms
                                           ;	.line	1115; "MC32P7351.c"	continue;
0000db   a0cd     goto    0xcd             	GOTO	_00879_DS_
                                           _00819_DS_
                                           ;	.line	1119; "MC32P7351.c"	key_event_handle(); // 按键事件处理函数，扫描在中断服务函数内执行
0000dc   84eb     call    0x4eb            	CALL	_key_event_handle
                                           ;	.line	1120; "MC32P7351.c"	adc_scan_handle();  // 充电扫描和处理函数(约占用89ms)
0000dd   83bb     call    0x3bb            	CALL	_adc_scan_handle
                                           ;	.line	1122; "MC32P7351.c"	turn_dir_scan_handle();
0000de   838b     call    0x38b            	CALL	_turn_dir_scan_handle
                                           ;	.line	1123; "MC32P7351.c"	shutdown_scan_handle(); // 自动关机检测和处理函数
0000df   836a     call    0x36a            	CALL	_shutdown_scan_handle
                                           ;	.line	1127; "MC32P7351.c"	if (FLAG_IS_IN_CHARGING)
0000e0   e491     jbset   0x91, 0x2        	JBSET	_flag1,2
0000e1   a307     goto    0x307            	GOTO	_00863_DS_
                                           ;	.line	1129; "MC32P7351.c"	last_pwm_val = T2DATA;      // 读出上一次PWM占空比对应的值
0000e2   59a3     movar   0x1a3            	MOVAR	_T2DATA
0000e3   5681     movra   0x81             	MOVRA	_last_pwm_val
0000e4   7682     clrr    0x82             	CLRR	(_last_pwm_val + 1)
                                           ;	.line	1130; "MC32P7351.c"	max_pwm_val = (T2LOAD + 1); // 读出PWM占空比设定的、最大的值
0000e5   59a2     movar   0x1a2            	MOVAR	_T2LOAD
0000e6   5616     movra   0x16             	MOVRA	r0x105D
0000e7   7617     clrr    0x17             	CLRR	r0x105E
0000e8   3c01     movai   0x1              	MOVAI	0x01
0000e9   7c16     addar   0x16             	ADDAR	r0x105D
0000ea   5675     movra   0x75             	MOVRA	_max_pwm_val
0000eb   7676     clrr    0x76             	CLRR	(_max_pwm_val + 1)
0000ec   5276     rlr     0x76             	RLR	(_max_pwm_val + 1)
0000ed   3c00     movai   0                	MOVAI	0x00
0000ee   7e76     addra   0x76             	ADDRA	(_max_pwm_val + 1)
0000ef   7677     clrr    0x77             	CLRR	(_max_pwm_val + 2)
0000f0   7678     clrr    0x78             	CLRR	(_max_pwm_val + 3)
                                           ;	.line	1156; "MC32P7351.c"	tmp_bat_val = adc_bat_val;
0000f1   5871     movar   0x71             	MOVAR	_adc_bat_val
0000f2   5685     movra   0x85             	MOVRA	_tmp_bat_val
0000f3   5872     movar   0x72             	MOVAR	(_adc_bat_val + 1)
0000f4   5686     movra   0x86             	MOVRA	(_tmp_bat_val + 1)
                                           ;;swapping arguments (AOP_TYPEs 1/3)
                                           ;;unsigned compare: left >= lit(0xB16=2838), size=4
                                           ;	.line	1157; "MC32P7351.c"	if (adc_bat_val <= 2837) // 如果检测电池电压小于 6.5V
0000f5   3c00     movai   0                	MOVAI	0x00
0000f6   4874     rsubar  0x74             	RSUBAR	(_adc_bat_val + 3)
0000f7   e587     jbset   0x187, 0x2       	JBSET	PFLAG,2
0000f8   a103     goto    0x103            	GOTO	_01019_DS_
0000f9   3c00     movai   0                	MOVAI	0x00
0000fa   4873     rsubar  0x73             	RSUBAR	(_adc_bat_val + 2)
0000fb   e587     jbset   0x187, 0x2       	JBSET	PFLAG,2
0000fc   a103     goto    0x103            	GOTO	_01019_DS_
0000fd   3c0b     movai   0xb              	MOVAI	0x0b
0000fe   4872     rsubar  0x72             	RSUBAR	(_adc_bat_val + 1)
0000ff   e587     jbset   0x187, 0x2       	JBSET	PFLAG,2
000100   a103     goto    0x103            	GOTO	_01019_DS_
000101   3c16     movai   0x16             	MOVAI	0x16
000102   4871     rsubar  0x71             	RSUBAR	_adc_bat_val
                                           _01019_DS_
000103   f187     jbclr   0x187, 0         	JBCLR	PFLAG,0
000104   a10b     goto    0x10b            	GOTO	_00830_DS_
                                           ;;genSkipc:3291: created from rifx:013B5EFC
                                           ;	.line	1167; "MC32P7351.c"	tmp_bat_val += 310;
000105   3c36     movai   0x36             	MOVAI	0x36
000106   7e85     addra   0x85             	ADDRA	_tmp_bat_val
000107   f187     jbclr   0x187, 0         	JBCLR	PFLAG,0
000108   6686     incr    0x86             	INCR	(_tmp_bat_val + 1)
000109   6686     incr    0x86             	INCR	(_tmp_bat_val + 1)
00010a   a18a     goto    0x18a            	GOTO	_00910_DS_
                                           ;;swapping arguments (AOP_TYPEs 1/3)
                                           ;;unsigned compare: left >= lit(0xBF1=3057), size=4
                                           _00830_DS_
                                           ;	.line	1170; "MC32P7351.c"	else if (adc_bat_val <= 3056) // 如果检测电池电压小于 7.0V
00010b   3c00     movai   0                	MOVAI	0x00
00010c   4874     rsubar  0x74             	RSUBAR	(_adc_bat_val + 3)
00010d   e587     jbset   0x187, 0x2       	JBSET	PFLAG,2
00010e   a119     goto    0x119            	GOTO	_01020_DS_
00010f   3c00     movai   0                	MOVAI	0x00
000110   4873     rsubar  0x73             	RSUBAR	(_adc_bat_val + 2)
000111   e587     jbset   0x187, 0x2       	JBSET	PFLAG,2
000112   a119     goto    0x119            	GOTO	_01020_DS_
000113   3c0b     movai   0xb              	MOVAI	0x0b
000114   4872     rsubar  0x72             	RSUBAR	(_adc_bat_val + 1)
000115   e587     jbset   0x187, 0x2       	JBSET	PFLAG,2
000116   a119     goto    0x119            	GOTO	_01020_DS_
000117   3cf1     movai   0xf1             	MOVAI	0xf1
000118   4871     rsubar  0x71             	RSUBAR	_adc_bat_val
                                           _01020_DS_
000119   f187     jbclr   0x187, 0         	JBCLR	PFLAG,0
00011a   a121     goto    0x121            	GOTO	_00827_DS_
                                           ;;genSkipc:3291: created from rifx:013B5EFC
                                           ;	.line	1183; "MC32P7351.c"	tmp_bat_val += 290;
00011b   3c22     movai   0x22             	MOVAI	0x22
00011c   7e85     addra   0x85             	ADDRA	_tmp_bat_val
00011d   f187     jbclr   0x187, 0         	JBCLR	PFLAG,0
00011e   6686     incr    0x86             	INCR	(_tmp_bat_val + 1)
00011f   6686     incr    0x86             	INCR	(_tmp_bat_val + 1)
000120   a18a     goto    0x18a            	GOTO	_00910_DS_
                                           ;;swapping arguments (AOP_TYPEs 1/3)
                                           ;;unsigned compare: left >= lit(0xC75=3189), size=4
                                           _00827_DS_
                                           ;	.line	1186; "MC32P7351.c"	else if (adc_bat_val <= 3188) // 如果检测电池电压小于 7.3V
000121   3c00     movai   0                	MOVAI	0x00
000122   4874     rsubar  0x74             	RSUBAR	(_adc_bat_val + 3)
000123   e587     jbset   0x187, 0x2       	JBSET	PFLAG,2
000124   a12f     goto    0x12f            	GOTO	_01021_DS_
000125   3c00     movai   0                	MOVAI	0x00
000126   4873     rsubar  0x73             	RSUBAR	(_adc_bat_val + 2)
000127   e587     jbset   0x187, 0x2       	JBSET	PFLAG,2
000128   a12f     goto    0x12f            	GOTO	_01021_DS_
000129   3c0c     movai   0xc              	MOVAI	0x0c
00012a   4872     rsubar  0x72             	RSUBAR	(_adc_bat_val + 1)
00012b   e587     jbset   0x187, 0x2       	JBSET	PFLAG,2
00012c   a12f     goto    0x12f            	GOTO	_01021_DS_
00012d   3c75     movai   0x75             	MOVAI	0x75
00012e   4871     rsubar  0x71             	RSUBAR	_adc_bat_val
                                           _01021_DS_
00012f   f187     jbclr   0x187, 0         	JBCLR	PFLAG,0
000130   a136     goto    0x136            	GOTO	_00824_DS_
                                           ;;genSkipc:3291: created from rifx:013B5EFC
                                           ;	.line	1197; "MC32P7351.c"	tmp_bat_val += 250; //
000131   3cfa     movai   0xfa             	MOVAI	0xfa
000132   7e85     addra   0x85             	ADDRA	_tmp_bat_val
000133   f187     jbclr   0x187, 0         	JBCLR	PFLAG,0
000134   6686     incr    0x86             	INCR	(_tmp_bat_val + 1)
000135   a18a     goto    0x18a            	GOTO	_00910_DS_
                                           ;;swapping arguments (AOP_TYPEs 1/3)
                                           ;;unsigned compare: left >= lit(0xCFF=3327), size=4
                                           _00824_DS_
                                           ;	.line	1200; "MC32P7351.c"	else if (adc_bat_val <= 3326) // 如果检测电池电压小于 7.62V
000136   3c00     movai   0                	MOVAI	0x00
000137   4874     rsubar  0x74             	RSUBAR	(_adc_bat_val + 3)
000138   e587     jbset   0x187, 0x2       	JBSET	PFLAG,2
000139   a144     goto    0x144            	GOTO	_01022_DS_
00013a   3c00     movai   0                	MOVAI	0x00
00013b   4873     rsubar  0x73             	RSUBAR	(_adc_bat_val + 2)
00013c   e587     jbset   0x187, 0x2       	JBSET	PFLAG,2
00013d   a144     goto    0x144            	GOTO	_01022_DS_
00013e   3c0c     movai   0xc              	MOVAI	0x0c
00013f   4872     rsubar  0x72             	RSUBAR	(_adc_bat_val + 1)
000140   e587     jbset   0x187, 0x2       	JBSET	PFLAG,2
000141   a144     goto    0x144            	GOTO	_01022_DS_
000142   3cff     movai   0xff             	MOVAI	0xff
000143   4871     rsubar  0x71             	RSUBAR	_adc_bat_val
                                           _01022_DS_
000144   f187     jbclr   0x187, 0         	JBCLR	PFLAG,0
000145   a14b     goto    0x14b            	GOTO	_00821_DS_
                                           ;;genSkipc:3291: created from rifx:013B5EFC
                                           ;	.line	1209; "MC32P7351.c"	tmp_bat_val += 200;
000146   3cc8     movai   0xc8             	MOVAI	0xc8
000147   7e85     addra   0x85             	ADDRA	_tmp_bat_val
000148   f187     jbclr   0x187, 0         	JBCLR	PFLAG,0
000149   6686     incr    0x86             	INCR	(_tmp_bat_val + 1)
00014a   a18a     goto    0x18a            	GOTO	_00910_DS_
                                           _00821_DS_
                                           ;	.line	1225; "MC32P7351.c"	tmp_bat_val -= ((u32)adc_bat_val * 157 / 1000 - 522);
00014b   5871     movar   0x71             	MOVAR	_adc_bat_val
00014c   5600     movra   0                	MOVRA	STK06
00014d   5872     movar   0x72             	MOVAR	(_adc_bat_val + 1)
00014e   5601     movra   0x1              	MOVRA	STK05
00014f   5873     movar   0x73             	MOVAR	(_adc_bat_val + 2)
000150   5602     movra   0x2              	MOVRA	STK04
000151   5874     movar   0x74             	MOVAR	(_adc_bat_val + 3)
000152   5603     movra   0x3              	MOVRA	STK03
000153   3c9d     movai   0x9d             	MOVAI	0x9d
000154   5604     movra   0x4              	MOVRA	STK02
000155   3c00     movai   0                	MOVAI	0x00
000156   5605     movra   0x5              	MOVRA	STK01
000157   3c00     movai   0                	MOVAI	0x00
000158   5606     movra   0x6              	MOVRA	STK00
000159   3c00     movai   0                	MOVAI	0x00
00015a   86e4     call    0x6e4            	CALL	__mullong
00015b   5619     movra   0x19             	MOVRA	r0x105F
00015c   5806     movar   0x6              	MOVAR	STK00
00015d   5618     movra   0x18             	MOVRA	r0x1060
00015e   5805     movar   0x5              	MOVAR	STK01
00015f   5617     movra   0x17             	MOVRA	r0x105E
000160   5804     movar   0x4              	MOVAR	STK02
000161   5616     movra   0x16             	MOVRA	r0x105D
000162   3ce8     movai   0xe8             	MOVAI	0xe8
000163   5600     movra   0                	MOVRA	STK06
000164   3c03     movai   0x3              	MOVAI	0x03
000165   5601     movra   0x1              	MOVRA	STK05
000166   3c00     movai   0                	MOVAI	0x00
000167   5602     movra   0x2              	MOVRA	STK04
000168   3c00     movai   0                	MOVAI	0x00
000169   5603     movra   0x3              	MOVRA	STK03
00016a   5816     movar   0x16             	MOVAR	r0x105D
00016b   5604     movra   0x4              	MOVRA	STK02
00016c   5817     movar   0x17             	MOVAR	r0x105E
00016d   5605     movra   0x5              	MOVRA	STK01
00016e   5818     movar   0x18             	MOVAR	r0x1060
00016f   5606     movra   0x6              	MOVRA	STK00
000170   5819     movar   0x19             	MOVAR	r0x105F
000171   876f     call    0x76f            	CALL	__divulong
000172   5619     movra   0x19             	MOVRA	r0x105F
000173   5806     movar   0x6              	MOVAR	STK00
000174   5618     movra   0x18             	MOVRA	r0x1060
000175   5805     movar   0x5              	MOVAR	STK01
000176   561b     movra   0x1b             	MOVRA	r0x1062
000177   5617     movra   0x17             	MOVRA	r0x105E
000178   5804     movar   0x4              	MOVAR	STK02
000179   561a     movra   0x1a             	MOVRA	r0x1061
00017a   5616     movra   0x16             	MOVRA	r0x105D
                                           ;;118	MOVAR	r0x105D
                                           ;;119	MOVAR	r0x105E
00017b   3cf6     movai   0xf6             	MOVAI	0xf6
00017c   7c1a     addar   0x1a             	ADDAR	r0x1061
00017d   5616     movra   0x16             	MOVRA	r0x105D
00017e   3cfd     movai   0xfd             	MOVAI	0xfd
00017f   5617     movra   0x17             	MOVRA	r0x105E
000180   581b     movar   0x1b             	MOVAR	r0x1062
000181   f187     jbclr   0x187, 0         	JBCLR	PFLAG,0
000182   601b     jzar    0x1b             	JZAR	r0x1062
000183   7e17     addra   0x17             	ADDRA	r0x105E
000184   5816     movar   0x16             	MOVAR	r0x105D
000185   4a85     rsubra  0x85             	RSUBRA	_tmp_bat_val
000186   5817     movar   0x17             	MOVAR	r0x105E
000187   e187     jbset   0x187, 0         	JBSET	PFLAG,0
000188   6017     jzar    0x17             	JZAR	r0x105E
000189   4a86     rsubra  0x86             	RSUBRA	(_tmp_bat_val + 1)
                                           _00910_DS_
                                           ;	.line	1274; "MC32P7351.c"	for (i = 0; i < 50; i++)
00018a   7616     clrr    0x16             	CLRR	r0x105D
00018b   7617     clrr    0x17             	CLRR	r0x105E
                                           ;;swapping arguments (AOP_TYPEs 1/3)
                                           ;;unsigned compare: left >= lit(0x3=3), size=2
                                           _00884_DS_
                                           ;	.line	1276; "MC32P7351.c"	if (tmp_bat_val > 2)
00018c   3c00     movai   0                	MOVAI	0x00
00018d   4886     rsubar  0x86             	RSUBAR	(_tmp_bat_val + 1)
00018e   e587     jbset   0x187, 0x2       	JBSET	PFLAG,2
00018f   a192     goto    0x192            	GOTO	_01023_DS_
000190   3c03     movai   0x3              	MOVAI	0x03
000191   4885     rsubar  0x85             	RSUBAR	_tmp_bat_val
                                           _01023_DS_
000192   e187     jbset   0x187, 0         	JBSET	PFLAG,0
000193   a198     goto    0x198            	GOTO	_00885_DS_
                                           ;;genSkipc:3291: created from rifx:013B5EFC
                                           ;	.line	1278; "MC32P7351.c"	tmp_bat_val--;
000194   3cff     movai   0xff             	MOVAI	0xff
000195   7e85     addra   0x85             	ADDRA	_tmp_bat_val
000196   e187     jbset   0x187, 0         	JBSET	PFLAG,0
000197   6e86     decr    0x86             	DECR	(_tmp_bat_val + 1)
                                           _00885_DS_
                                           ;	.line	1274; "MC32P7351.c"	for (i = 0; i < 50; i++)
000198   6616     incr    0x16             	INCR	r0x105D
000199   f587     jbclr   0x187, 0x2       	JBCLR	PFLAG,2
00019a   6617     incr    0x17             	INCR	r0x105E
                                           ;;unsigned compare: left < lit(0x32=50), size=2
00019b   3c00     movai   0                	MOVAI	0x00
00019c   4817     rsubar  0x17             	RSUBAR	r0x105E
00019d   e587     jbset   0x187, 0x2       	JBSET	PFLAG,2
00019e   a1a1     goto    0x1a1            	GOTO	_01024_DS_
00019f   3c32     movai   0x32             	MOVAI	0x32
0001a0   4816     rsubar  0x16             	RSUBAR	r0x105D
                                           _01024_DS_
0001a1   e187     jbset   0x187, 0         	JBSET	PFLAG,0
0001a2   a18c     goto    0x18c            	GOTO	_00884_DS_
                                           ;;genSkipc:3291: created from rifx:013B5EFC
                                           ;;unsigned compare: left < lit(0xE27=3623), size=4
                                           ;	.line	1284; "MC32P7351.c"	if (adc_bat_val >= 3623) // 8.30V及以上 , 降低电流
0001a3   3c00     movai   0                	MOVAI	0x00
0001a4   4874     rsubar  0x74             	RSUBAR	(_adc_bat_val + 3)
0001a5   e587     jbset   0x187, 0x2       	JBSET	PFLAG,2
0001a6   a1b1     goto    0x1b1            	GOTO	_01025_DS_
0001a7   3c00     movai   0                	MOVAI	0x00
0001a8   4873     rsubar  0x73             	RSUBAR	(_adc_bat_val + 2)
0001a9   e587     jbset   0x187, 0x2       	JBSET	PFLAG,2
0001aa   a1b1     goto    0x1b1            	GOTO	_01025_DS_
0001ab   3c0e     movai   0xe              	MOVAI	0x0e
0001ac   4872     rsubar  0x72             	RSUBAR	(_adc_bat_val + 1)
0001ad   e587     jbset   0x187, 0x2       	JBSET	PFLAG,2
0001ae   a1b1     goto    0x1b1            	GOTO	_01025_DS_
0001af   3c27     movai   0x27             	MOVAI	0x27
0001b0   4871     rsubar  0x71             	RSUBAR	_adc_bat_val
                                           _01025_DS_
0001b1   e187     jbset   0x187, 0         	JBSET	PFLAG,0
0001b2   a1cc     goto    0x1cc            	GOTO	_00839_DS_
                                           ;;genSkipc:3291: created from rifx:013B5EFC
                                           ;	.line	1292; "MC32P7351.c"	for (i = 0; i < 260; i++) //
0001b3   7616     clrr    0x16             	CLRR	r0x105D
0001b4   7617     clrr    0x17             	CLRR	r0x105E
                                           ;;swapping arguments (AOP_TYPEs 1/3)
                                           ;;unsigned compare: left >= lit(0x3=3), size=2
                                           _00886_DS_
                                           ;	.line	1298; "MC32P7351.c"	if (tmp_bat_val > 2)
0001b5   3c00     movai   0                	MOVAI	0x00
0001b6   4886     rsubar  0x86             	RSUBAR	(_tmp_bat_val + 1)
0001b7   e587     jbset   0x187, 0x2       	JBSET	PFLAG,2
0001b8   a1bb     goto    0x1bb            	GOTO	_01026_DS_
0001b9   3c03     movai   0x3              	MOVAI	0x03
0001ba   4885     rsubar  0x85             	RSUBAR	_tmp_bat_val
                                           _01026_DS_
0001bb   e187     jbset   0x187, 0         	JBSET	PFLAG,0
0001bc   a1c1     goto    0x1c1            	GOTO	_00887_DS_
                                           ;;genSkipc:3291: created from rifx:013B5EFC
                                           ;	.line	1300; "MC32P7351.c"	tmp_bat_val--;
0001bd   3cff     movai   0xff             	MOVAI	0xff
0001be   7e85     addra   0x85             	ADDRA	_tmp_bat_val
0001bf   e187     jbset   0x187, 0         	JBSET	PFLAG,0
0001c0   6e86     decr    0x86             	DECR	(_tmp_bat_val + 1)
                                           _00887_DS_
                                           ;	.line	1292; "MC32P7351.c"	for (i = 0; i < 260; i++) //
0001c1   6616     incr    0x16             	INCR	r0x105D
0001c2   f587     jbclr   0x187, 0x2       	JBCLR	PFLAG,2
0001c3   6617     incr    0x17             	INCR	r0x105E
                                           ;;unsigned compare: left < lit(0x104=260), size=2
0001c4   3c01     movai   0x1              	MOVAI	0x01
0001c5   4817     rsubar  0x17             	RSUBAR	r0x105E
0001c6   e587     jbset   0x187, 0x2       	JBSET	PFLAG,2
0001c7   a1ca     goto    0x1ca            	GOTO	_01027_DS_
0001c8   3c04     movai   0x4              	MOVAI	0x04
0001c9   4816     rsubar  0x16             	RSUBAR	r0x105D
                                           _01027_DS_
0001ca   e187     jbset   0x187, 0         	JBSET	PFLAG,0
0001cb   a1b5     goto    0x1b5            	GOTO	_00886_DS_
                                           ;;genSkipc:3291: created from rifx:013B5EFC
                                           _00839_DS_
                                           ;	.line	1349; "MC32P7351.c"	tmp_val = max_pwm_val - (adc_charging_val * max_pwm_val * 94 / 147) / tmp_bat_val;
0001cc   587f     movar   0x7f             	MOVAR	_adc_charging_val
0001cd   5616     movra   0x16             	MOVRA	r0x105D
0001ce   5880     movar   0x80             	MOVAR	(_adc_charging_val + 1)
0001cf   5617     movra   0x17             	MOVRA	r0x105E
0001d0   761a     clrr    0x1a             	CLRR	r0x1061
0001d1   761b     clrr    0x1b             	CLRR	r0x1062
0001d2   5875     movar   0x75             	MOVAR	_max_pwm_val
0001d3   5600     movra   0                	MOVRA	STK06
0001d4   5876     movar   0x76             	MOVAR	(_max_pwm_val + 1)
0001d5   5601     movra   0x1              	MOVRA	STK05
0001d6   5877     movar   0x77             	MOVAR	(_max_pwm_val + 2)
0001d7   5602     movra   0x2              	MOVRA	STK04
0001d8   5878     movar   0x78             	MOVAR	(_max_pwm_val + 3)
0001d9   5603     movra   0x3              	MOVRA	STK03
0001da   5816     movar   0x16             	MOVAR	r0x105D
0001db   5604     movra   0x4              	MOVRA	STK02
0001dc   5817     movar   0x17             	MOVAR	r0x105E
0001dd   5605     movra   0x5              	MOVRA	STK01
0001de   3c00     movai   0                	MOVAI	0x00
0001df   5606     movra   0x6              	MOVRA	STK00
0001e0   3c00     movai   0                	MOVAI	0x00
0001e1   86e4     call    0x6e4            	CALL	__mullong
0001e2   561b     movra   0x1b             	MOVRA	r0x1062
0001e3   5806     movar   0x6              	MOVAR	STK00
0001e4   561a     movra   0x1a             	MOVRA	r0x1061
0001e5   5805     movar   0x5              	MOVAR	STK01
0001e6   5617     movra   0x17             	MOVRA	r0x105E
0001e7   5804     movar   0x4              	MOVAR	STK02
0001e8   5616     movra   0x16             	MOVRA	r0x105D
0001e9   5816     movar   0x16             	MOVAR	r0x105D
0001ea   5600     movra   0                	MOVRA	STK06
0001eb   5817     movar   0x17             	MOVAR	r0x105E
0001ec   5601     movra   0x1              	MOVRA	STK05
0001ed   581a     movar   0x1a             	MOVAR	r0x1061
0001ee   5602     movra   0x2              	MOVRA	STK04
0001ef   581b     movar   0x1b             	MOVAR	r0x1062
0001f0   5603     movra   0x3              	MOVRA	STK03
0001f1   3c5e     movai   0x5e             	MOVAI	0x5e
0001f2   5604     movra   0x4              	MOVRA	STK02
0001f3   3c00     movai   0                	MOVAI	0x00
0001f4   5605     movra   0x5              	MOVRA	STK01
0001f5   3c00     movai   0                	MOVAI	0x00
0001f6   5606     movra   0x6              	MOVRA	STK00
0001f7   3c00     movai   0                	MOVAI	0x00
0001f8   86e4     call    0x6e4            	CALL	__mullong
0001f9   561b     movra   0x1b             	MOVRA	r0x1062
0001fa   5806     movar   0x6              	MOVAR	STK00
0001fb   561a     movra   0x1a             	MOVRA	r0x1061
0001fc   5805     movar   0x5              	MOVAR	STK01
0001fd   5617     movra   0x17             	MOVRA	r0x105E
0001fe   5804     movar   0x4              	MOVAR	STK02
0001ff   5616     movra   0x16             	MOVRA	r0x105D
000200   3c93     movai   0x93             	MOVAI	0x93
000201   5600     movra   0                	MOVRA	STK06
000202   3c00     movai   0                	MOVAI	0x00
000203   5601     movra   0x1              	MOVRA	STK05
000204   3c00     movai   0                	MOVAI	0x00
000205   5602     movra   0x2              	MOVRA	STK04
000206   3c00     movai   0                	MOVAI	0x00
000207   5603     movra   0x3              	MOVRA	STK03
000208   5816     movar   0x16             	MOVAR	r0x105D
000209   5604     movra   0x4              	MOVRA	STK02
00020a   5817     movar   0x17             	MOVAR	r0x105E
00020b   5605     movra   0x5              	MOVRA	STK01
00020c   581a     movar   0x1a             	MOVAR	r0x1061
00020d   5606     movra   0x6              	MOVRA	STK00
00020e   581b     movar   0x1b             	MOVAR	r0x1062
00020f   876f     call    0x76f            	CALL	__divulong
000210   561b     movra   0x1b             	MOVRA	r0x1062
000211   5806     movar   0x6              	MOVAR	STK00
000212   561a     movra   0x1a             	MOVRA	r0x1061
000213   5805     movar   0x5              	MOVAR	STK01
000214   5617     movra   0x17             	MOVRA	r0x105E
000215   5804     movar   0x4              	MOVAR	STK02
000216   5616     movra   0x16             	MOVRA	r0x105D
000217   5885     movar   0x85             	MOVAR	_tmp_bat_val
000218   561c     movra   0x1c             	MOVRA	r0x1063
000219   5886     movar   0x86             	MOVAR	(_tmp_bat_val + 1)
00021a   561d     movra   0x1d             	MOVRA	r0x1064
00021b   761e     clrr    0x1e             	CLRR	r0x1065
00021c   761f     clrr    0x1f             	CLRR	r0x1066
00021d   581c     movar   0x1c             	MOVAR	r0x1063
00021e   5600     movra   0                	MOVRA	STK06
00021f   581d     movar   0x1d             	MOVAR	r0x1064
000220   5601     movra   0x1              	MOVRA	STK05
000221   3c00     movai   0                	MOVAI	0x00
000222   5602     movra   0x2              	MOVRA	STK04
000223   3c00     movai   0                	MOVAI	0x00
000224   5603     movra   0x3              	MOVRA	STK03
000225   5816     movar   0x16             	MOVAR	r0x105D
000226   5604     movra   0x4              	MOVRA	STK02
000227   5817     movar   0x17             	MOVAR	r0x105E
000228   5605     movra   0x5              	MOVRA	STK01
000229   581a     movar   0x1a             	MOVAR	r0x1061
00022a   5606     movra   0x6              	MOVRA	STK00
00022b   581b     movar   0x1b             	MOVAR	r0x1062
00022c   876f     call    0x76f            	CALL	__divulong
00022d   561b     movra   0x1b             	MOVRA	r0x1062
00022e   5806     movar   0x6              	MOVAR	STK00
00022f   561a     movra   0x1a             	MOVRA	r0x1061
000230   5805     movar   0x5              	MOVAR	STK01
000231   561f     movra   0x1f             	MOVRA	r0x1066
000232   5617     movra   0x17             	MOVRA	r0x105E
000233   5804     movar   0x4              	MOVAR	STK02
000234   561e     movra   0x1e             	MOVRA	r0x1065
000235   5616     movra   0x16             	MOVRA	r0x105D
000236   5875     movar   0x75             	MOVAR	_max_pwm_val
000237   561c     movra   0x1c             	MOVRA	r0x1063
000238   5876     movar   0x76             	MOVAR	(_max_pwm_val + 1)
000239   561d     movra   0x1d             	MOVRA	r0x1064
                                           ;;115	MOVAR	r0x105D
                                           ;;116	MOVAR	r0x105E
00023a   581e     movar   0x1e             	MOVAR	r0x1065
00023b   481c     rsubar  0x1c             	RSUBAR	r0x1063
00023c   5683     movra   0x83             	MOVRA	_tmp_val
00023d   581f     movar   0x1f             	MOVAR	r0x1066
00023e   e187     jbset   0x187, 0         	JBSET	PFLAG,0
00023f   641f     incar   0x1f             	INCAR	r0x1066
000240   481d     rsubar  0x1d             	RSUBAR	r0x1064
000241   5684     movra   0x84             	MOVRA	(_tmp_val + 1)
                                           ;	.line	1354; "MC32P7351.c"	if (tmp_val >= max_pwm_val)
000242   5883     movar   0x83             	MOVAR	_tmp_val
000243   5616     movra   0x16             	MOVRA	r0x105D
000244   5884     movar   0x84             	MOVAR	(_tmp_val + 1)
000245   5617     movra   0x17             	MOVRA	r0x105E
000246   761a     clrr    0x1a             	CLRR	r0x1061
000247   761b     clrr    0x1b             	CLRR	r0x1062
000248   5878     movar   0x78             	MOVAR	(_max_pwm_val + 3)
000249   481b     rsubar  0x1b             	RSUBAR	r0x1062
00024a   e587     jbset   0x187, 0x2       	JBSET	PFLAG,2
00024b   a256     goto    0x256            	GOTO	_01028_DS_
00024c   5877     movar   0x77             	MOVAR	(_max_pwm_val + 2)
00024d   481a     rsubar  0x1a             	RSUBAR	r0x1061
00024e   e587     jbset   0x187, 0x2       	JBSET	PFLAG,2
00024f   a256     goto    0x256            	GOTO	_01028_DS_
000250   5876     movar   0x76             	MOVAR	(_max_pwm_val + 1)
000251   4817     rsubar  0x17             	RSUBAR	r0x105E
000252   e587     jbset   0x187, 0x2       	JBSET	PFLAG,2
000253   a256     goto    0x256            	GOTO	_01028_DS_
000254   5875     movar   0x75             	MOVAR	_max_pwm_val
000255   4816     rsubar  0x16             	RSUBAR	r0x105D
                                           _01028_DS_
000256   e187     jbset   0x187, 0         	JBSET	PFLAG,0
000257   a25a     goto    0x25a            	GOTO	_00841_DS_
                                           ;;genSkipc:3291: created from rifx:013B5EFC
                                           ;	.line	1357; "MC32P7351.c"	tmp_val = 0;
000258   7683     clrr    0x83             	CLRR	_tmp_val
000259   7684     clrr    0x84             	CLRR	(_tmp_val + 1)
                                           _00841_DS_
                                           ;	.line	1361; "MC32P7351.c"	tmp_val_cnt++;
00025a   668b     incr    0x8b             	INCR	_tmp_val_cnt
                                           ;	.line	1362; "MC32P7351.c"	tmp_val_cnt &= 0x07;
00025b   3c07     movai   0x7              	MOVAI	0x07
00025c   7a8b     andra   0x8b             	ANDRA	_tmp_val_cnt
                                           ;	.line	1363; "MC32P7351.c"	tmp_val_l[tmp_val_cnt] = (tmp_val_l[tmp_val_cnt] + tmp_val) >> 1;
00025d   d187     bclr    0x187, 0         	BCLR	PFLAG,0
00025e   508b     rlar    0x8b             	RLAR	_tmp_val_cnt
00025f   5616     movra   0x16             	MOVRA	r0x105D
000260   5816     movar   0x16             	MOVAR	r0x105D
000261   3f49     addai   0x49             	ADDAI	(_tmp_val_l + 0)
000262   5616     movra   0x16             	MOVRA	r0x105D
000263   3c00     movai   0                	MOVAI	high (_tmp_val_l + 0)
000264   f187     jbclr   0x187, 0         	JBCLR	PFLAG,0
000265   3f01     addai   0x1              	ADDAI	0x01
000266   5617     movra   0x17             	MOVRA	r0x105E
000267   d187     bclr    0x187, 0         	BCLR	PFLAG,0
000268   508b     rlar    0x8b             	RLAR	_tmp_val_cnt
000269   561a     movra   0x1a             	MOVRA	r0x1061
00026a   581a     movar   0x1a             	MOVAR	r0x1061
00026b   3f49     addai   0x49             	ADDAI	(_tmp_val_l + 0)
00026c   561a     movra   0x1a             	MOVRA	r0x1061
00026d   3c00     movai   0                	MOVAI	high (_tmp_val_l + 0)
00026e   f187     jbclr   0x187, 0         	JBCLR	PFLAG,0
00026f   3f01     addai   0x1              	ADDAI	0x01
000270   561b     movra   0x1b             	MOVRA	r0x1062
000271   581a     movar   0x1a             	MOVAR	r0x1061
000272   5784     movra   0x184            	MOVRA	FSR0
000273   581b     movar   0x1b             	MOVAR	r0x1062
000274   5785     movra   0x185            	MOVRA	FSR1
000275   5982     movar   0x182            	MOVAR	INDF2
000276   561c     movra   0x1c             	MOVRA	r0x1063
000277   6784     incr    0x184            	INCR	FSR0
000278   f587     jbclr   0x187, 0x2       	JBCLR	PFLAG,2
000279   6785     incr    0x185            	INCR	FSR1
00027a   5982     movar   0x182            	MOVAR	INDF2
00027b   561b     movra   0x1b             	MOVRA	r0x1062
00027c   561d     movra   0x1d             	MOVRA	r0x1064
00027d   5883     movar   0x83             	MOVAR	_tmp_val
00027e   7c1c     addar   0x1c             	ADDAR	r0x1063
00027f   561a     movra   0x1a             	MOVRA	r0x1061
                                           ;;117	MOVAR	r0x1064
000280   5884     movar   0x84             	MOVAR	(_tmp_val + 1)
000281   f187     jbclr   0x187, 0         	JBCLR	PFLAG,0
000282   6084     jzar    0x84             	JZAR	(_tmp_val + 1)
000283   7e1b     addra   0x1b             	ADDRA	r0x1062
                                           ;;shiftRight_Left2ResultLit:5339: shCount=1, size=2, sign=0, same=0, offr=0
000284   d187     bclr    0x187, 0         	BCLR	PFLAG,0
000285   4c1b     rrar    0x1b             	RRAR	r0x1062
000286   561d     movra   0x1d             	MOVRA	r0x1064
000287   4c1a     rrar    0x1a             	RRAR	r0x1061
000288   561c     movra   0x1c             	MOVRA	r0x1063
000289   5816     movar   0x16             	MOVAR	r0x105D
00028a   5784     movra   0x184            	MOVRA	FSR0
00028b   5817     movar   0x17             	MOVAR	r0x105E
00028c   5785     movra   0x185            	MOVRA	FSR1
00028d   581c     movar   0x1c             	MOVAR	r0x1063
00028e   5782     movra   0x182            	MOVRA	INDF2
00028f   6784     incr    0x184            	INCR	FSR0
000290   f587     jbclr   0x187, 0x2       	JBCLR	PFLAG,2
000291   6785     incr    0x185            	INCR	FSR1
000292   581d     movar   0x1d             	MOVAR	r0x1064
000293   5782     movra   0x182            	MOVRA	INDF2
                                           ;	.line	1364; "MC32P7351.c"	tmp_val = 0;
000294   7683     clrr    0x83             	CLRR	_tmp_val
000295   7684     clrr    0x84             	CLRR	(_tmp_val + 1)
                                           ;	.line	1365; "MC32P7351.c"	for (i = 0; i < 8; i++)
000296   768a     clrr    0x8a             	CLRR	_i
                                           ;;unsigned compare: left < lit(0x8=8), size=1
                                           _00889_DS_
000297   3c08     movai   0x8              	MOVAI	0x08
000298   488a     rsubar  0x8a             	RSUBAR	_i
000299   f187     jbclr   0x187, 0         	JBCLR	PFLAG,0
00029a   a2b8     goto    0x2b8            	GOTO	_00842_DS_
                                           ;;genSkipc:3291: created from rifx:013B5EFC
                                           ;	.line	1367; "MC32P7351.c"	tmp_val += tmp_val_l[i];
00029b   d187     bclr    0x187, 0         	BCLR	PFLAG,0
00029c   508a     rlar    0x8a             	RLAR	_i
00029d   5616     movra   0x16             	MOVRA	r0x105D
00029e   5816     movar   0x16             	MOVAR	r0x105D
00029f   3f49     addai   0x49             	ADDAI	(_tmp_val_l + 0)
0002a0   5616     movra   0x16             	MOVRA	r0x105D
0002a1   3c00     movai   0                	MOVAI	high (_tmp_val_l + 0)
0002a2   f187     jbclr   0x187, 0         	JBCLR	PFLAG,0
0002a3   3f01     addai   0x1              	ADDAI	0x01
0002a4   5617     movra   0x17             	MOVRA	r0x105E
0002a5   5816     movar   0x16             	MOVAR	r0x105D
0002a6   5784     movra   0x184            	MOVRA	FSR0
0002a7   5817     movar   0x17             	MOVAR	r0x105E
0002a8   5785     movra   0x185            	MOVRA	FSR1
0002a9   5982     movar   0x182            	MOVAR	INDF2
0002aa   561a     movra   0x1a             	MOVRA	r0x1061
0002ab   6784     incr    0x184            	INCR	FSR0
0002ac   f587     jbclr   0x187, 0x2       	JBCLR	PFLAG,2
0002ad   6785     incr    0x185            	INCR	FSR1
0002ae   5982     movar   0x182            	MOVAR	INDF2
0002af   561b     movra   0x1b             	MOVRA	r0x1062
0002b0   581a     movar   0x1a             	MOVAR	r0x1061
0002b1   7e83     addra   0x83             	ADDRA	_tmp_val
0002b2   581b     movar   0x1b             	MOVAR	r0x1062
0002b3   f187     jbclr   0x187, 0         	JBCLR	PFLAG,0
0002b4   601b     jzar    0x1b             	JZAR	r0x1062
0002b5   7e84     addra   0x84             	ADDRA	(_tmp_val + 1)
                                           ;	.line	1365; "MC32P7351.c"	for (i = 0; i < 8; i++)
0002b6   668a     incr    0x8a             	INCR	_i
0002b7   a297     goto    0x297            	GOTO	_00889_DS_
                                           ;;shiftRight_Left2ResultLit:5339: shCount=1, size=2, sign=0, same=1, offr=0
                                           _00842_DS_
                                           ;	.line	1369; "MC32P7351.c"	tmp_val >>= 3;
0002b8   d187     bclr    0x187, 0         	BCLR	PFLAG,0
0002b9   4e84     rrr     0x84             	RRR	(_tmp_val + 1)
0002ba   4e83     rrr     0x83             	RRR	_tmp_val
                                           ;;shiftRight_Left2ResultLit:5339: shCount=1, size=2, sign=0, same=1, offr=0
0002bb   d187     bclr    0x187, 0         	BCLR	PFLAG,0
0002bc   4e84     rrr     0x84             	RRR	(_tmp_val + 1)
0002bd   4e83     rrr     0x83             	RRR	_tmp_val
                                           ;;shiftRight_Left2ResultLit:5339: shCount=1, size=2, sign=0, same=1, offr=0
0002be   d187     bclr    0x187, 0         	BCLR	PFLAG,0
0002bf   4e84     rrr     0x84             	RRR	(_tmp_val + 1)
0002c0   4e83     rrr     0x83             	RRR	_tmp_val
                                           ;	.line	1377; "MC32P7351.c"	cnt++;
0002c1   662a     incr    0x2a             	INCR	_main_cnt_262144_220
                                           ;	.line	1379; "MC32P7351.c"	if (tmp_val > last_pwm_val)
0002c2   5884     movar   0x84             	MOVAR	(_tmp_val + 1)
0002c3   4882     rsubar  0x82             	RSUBAR	(_last_pwm_val + 1)
0002c4   e587     jbset   0x187, 0x2       	JBSET	PFLAG,2
0002c5   a2c8     goto    0x2c8            	GOTO	_01030_DS_
0002c6   5883     movar   0x83             	MOVAR	_tmp_val
0002c7   4881     rsubar  0x81             	RSUBAR	_last_pwm_val
                                           _01030_DS_
0002c8   f187     jbclr   0x187, 0         	JBCLR	PFLAG,0
0002c9   a2e3     goto    0x2e3            	GOTO	_00852_DS_
                                           ;;genSkipc:3291: created from rifx:013B5EFC
                                           ;	.line	1381; "MC32P7351.c"	if ((tmp_val - last_pwm_val) > 2 || cnt >= 10)
0002ca   5881     movar   0x81             	MOVAR	_last_pwm_val
0002cb   4883     rsubar  0x83             	RSUBAR	_tmp_val
0002cc   5616     movra   0x16             	MOVRA	r0x105D
0002cd   5882     movar   0x82             	MOVAR	(_last_pwm_val + 1)
0002ce   e187     jbset   0x187, 0         	JBSET	PFLAG,0
0002cf   6482     incar   0x82             	INCAR	(_last_pwm_val + 1)
0002d0   4884     rsubar  0x84             	RSUBAR	(_tmp_val + 1)
0002d1   5617     movra   0x17             	MOVRA	r0x105E
                                           ;;swapping arguments (AOP_TYPEs 1/2)
                                           ;;unsigned compare: left >= lit(0x3=3), size=2
0002d2   3c00     movai   0                	MOVAI	0x00
0002d3   4817     rsubar  0x17             	RSUBAR	r0x105E
0002d4   e587     jbset   0x187, 0x2       	JBSET	PFLAG,2
0002d5   a2d8     goto    0x2d8            	GOTO	_01031_DS_
0002d6   3c03     movai   0x3              	MOVAI	0x03
0002d7   4816     rsubar  0x16             	RSUBAR	r0x105D
                                           _01031_DS_
0002d8   f187     jbclr   0x187, 0         	JBCLR	PFLAG,0
0002d9   a2de     goto    0x2de            	GOTO	_00843_DS_
                                           ;;genSkipc:3291: created from rifx:013B5EFC
                                           ;;unsigned compare: left < lit(0xA=10), size=1
0002da   3c0a     movai   0xa              	MOVAI	0x0a
0002db   482a     rsubar  0x2a             	RSUBAR	_main_cnt_262144_220
0002dc   e187     jbset   0x187, 0         	JBSET	PFLAG,0
0002dd   a304     goto    0x304            	GOTO	_00853_DS_
                                           ;;genSkipc:3291: created from rifx:013B5EFC
                                           _00843_DS_
                                           ;	.line	1383; "MC32P7351.c"	last_pwm_val++;
0002de   6681     incr    0x81             	INCR	_last_pwm_val
0002df   f587     jbclr   0x187, 0x2       	JBCLR	PFLAG,2
0002e0   6682     incr    0x82             	INCR	(_last_pwm_val + 1)
                                           ;	.line	1384; "MC32P7351.c"	cnt = 0;
0002e1   762a     clrr    0x2a             	CLRR	_main_cnt_262144_220
0002e2   a304     goto    0x304            	GOTO	_00853_DS_
                                           _00852_DS_
                                           ;	.line	1387; "MC32P7351.c"	else if (tmp_val < last_pwm_val)
0002e3   5882     movar   0x82             	MOVAR	(_last_pwm_val + 1)
0002e4   4884     rsubar  0x84             	RSUBAR	(_tmp_val + 1)
0002e5   e587     jbset   0x187, 0x2       	JBSET	PFLAG,2
0002e6   a2e9     goto    0x2e9            	GOTO	_01033_DS_
0002e7   5881     movar   0x81             	MOVAR	_last_pwm_val
0002e8   4883     rsubar  0x83             	RSUBAR	_tmp_val
                                           _01033_DS_
0002e9   f187     jbclr   0x187, 0         	JBCLR	PFLAG,0
0002ea   a304     goto    0x304            	GOTO	_00853_DS_
                                           ;;genSkipc:3291: created from rifx:013B5EFC
                                           ;	.line	1389; "MC32P7351.c"	if ((last_pwm_val - tmp_val) > 2 || cnt >= 10)
0002eb   5883     movar   0x83             	MOVAR	_tmp_val
0002ec   4881     rsubar  0x81             	RSUBAR	_last_pwm_val
0002ed   5616     movra   0x16             	MOVRA	r0x105D
0002ee   5884     movar   0x84             	MOVAR	(_tmp_val + 1)
0002ef   e187     jbset   0x187, 0         	JBSET	PFLAG,0
0002f0   6484     incar   0x84             	INCAR	(_tmp_val + 1)
0002f1   4882     rsubar  0x82             	RSUBAR	(_last_pwm_val + 1)
0002f2   5617     movra   0x17             	MOVRA	r0x105E
                                           ;;swapping arguments (AOP_TYPEs 1/2)
                                           ;;unsigned compare: left >= lit(0x3=3), size=2
0002f3   3c00     movai   0                	MOVAI	0x00
0002f4   4817     rsubar  0x17             	RSUBAR	r0x105E
0002f5   e587     jbset   0x187, 0x2       	JBSET	PFLAG,2
0002f6   a2f9     goto    0x2f9            	GOTO	_01034_DS_
0002f7   3c03     movai   0x3              	MOVAI	0x03
0002f8   4816     rsubar  0x16             	RSUBAR	r0x105D
                                           _01034_DS_
0002f9   f187     jbclr   0x187, 0         	JBCLR	PFLAG,0
0002fa   a2ff     goto    0x2ff            	GOTO	_00846_DS_
                                           ;;genSkipc:3291: created from rifx:013B5EFC
                                           ;;unsigned compare: left < lit(0xA=10), size=1
0002fb   3c0a     movai   0xa              	MOVAI	0x0a
0002fc   482a     rsubar  0x2a             	RSUBAR	_main_cnt_262144_220
0002fd   e187     jbset   0x187, 0         	JBSET	PFLAG,0
0002fe   a304     goto    0x304            	GOTO	_00853_DS_
                                           ;;genSkipc:3291: created from rifx:013B5EFC
                                           _00846_DS_
                                           ;	.line	1391; "MC32P7351.c"	last_pwm_val--;
0002ff   3cff     movai   0xff             	MOVAI	0xff
000300   7e81     addra   0x81             	ADDRA	_last_pwm_val
000301   e187     jbset   0x187, 0         	JBSET	PFLAG,0
000302   6e82     decr    0x82             	DECR	(_last_pwm_val + 1)
                                           ;	.line	1392; "MC32P7351.c"	cnt = 0;
000303   762a     clrr    0x2a             	CLRR	_main_cnt_262144_220
                                           _00853_DS_
                                           ;	.line	1453; "MC32P7351.c"	T2DATA = last_pwm_val;
000304   5881     movar   0x81             	MOVAR	_last_pwm_val
000305   57a3     movra   0x1a3            	MOVRA	_T2DATA
000306   a313     goto    0x313            	GOTO	_00864_DS_
                                           _00863_DS_
                                           ;	.line	1458; "MC32P7351.c"	if (FLAG_DURING_CHARGING_BAT_IS_NULL)
000307   ee91     jbset   0x91, 0x7        	JBSET	_flag1,7
000308   a313     goto    0x313            	GOTO	_00864_DS_
                                           ;	.line	1461; "MC32P7351.c"	LED_FULL_CHARGE_ON();
000309   d790     bclr    0x190, 0x3       	BCLR	_IOP0bits,3
                                           ;	.line	1462; "MC32P7351.c"	delay_ms(200);
00030a   3cc8     movai   0xc8             	MOVAI	0xc8
00030b   5606     movra   0x6              	MOVRA	STK00
00030c   3c00     movai   0                	MOVAI	0x00
00030d   86c4     call    0x6c4            	CALL	_delay_ms
                                           ;	.line	1463; "MC32P7351.c"	LED_FULL_CHARGE_OFF();
00030e   c790     bset    0x190, 0x3       	BSET	_IOP0bits,3
                                           ;	.line	1464; "MC32P7351.c"	delay_ms(200);
00030f   3cc8     movai   0xc8             	MOVAI	0xc8
000310   5606     movra   0x6              	MOVRA	STK00
000311   3c00     movai   0                	MOVAI	0x00
000312   86c4     call    0x6c4            	CALL	_delay_ms
                                           _00864_DS_
                                           ;	.line	1468; "MC32P7351.c"	if (flag_is_low_battery)
000313   e492     jbset   0x92, 0x2        	JBSET	_flag2,2
000314   a330     goto    0x330            	GOTO	_00877_DS_
                                           ;	.line	1470; "MC32P7351.c"	LED_WORKING_OFF();
000315   c994     bset    0x194, 0x4       	BSET	_IOP1bits,4
                                           ;	.line	1473; "MC32P7351.c"	LED_CHARGING_ON();
000316   d990     bclr    0x190, 0x4       	BCLR	_IOP0bits,4
                                           ;	.line	1475; "MC32P7351.c"	for (i = 0; i < 20; i++)
000317   768a     clrr    0x8a             	CLRR	_i
                                           ;;unsigned compare: left < lit(0x14=20), size=1
                                           _00892_DS_
000318   3c14     movai   0x14             	MOVAI	0x14
000319   488a     rsubar  0x8a             	RSUBAR	_i
00031a   f187     jbclr   0x187, 0         	JBCLR	PFLAG,0
00031b   a323     goto    0x323            	GOTO	_00872_DS_
                                           ;;genSkipc:3291: created from rifx:013B5EFC
                                           ;	.line	1478; "MC32P7351.c"	key_event_handle();
00031c   84eb     call    0x4eb            	CALL	_key_event_handle
                                           ;	.line	1479; "MC32P7351.c"	delay_ms(10);
00031d   3c0a     movai   0xa              	MOVAI	0x0a
00031e   5606     movra   0x6              	MOVRA	STK00
00031f   3c00     movai   0                	MOVAI	0x00
000320   86c4     call    0x6c4            	CALL	_delay_ms
                                           ;	.line	1475; "MC32P7351.c"	for (i = 0; i < 20; i++)
000321   668a     incr    0x8a             	INCR	_i
000322   a318     goto    0x318            	GOTO	_00892_DS_
                                           _00872_DS_
                                           ;	.line	1482; "MC32P7351.c"	LED_CHARGING_OFF();
000323   c990     bset    0x190, 0x4       	BSET	_IOP0bits,4
                                           ;	.line	1484; "MC32P7351.c"	for (i = 0; i < 20; i++)
000324   768a     clrr    0x8a             	CLRR	_i
                                           ;;unsigned compare: left < lit(0x14=20), size=1
                                           _00895_DS_
000325   3c14     movai   0x14             	MOVAI	0x14
000326   488a     rsubar  0x8a             	RSUBAR	_i
000327   f187     jbclr   0x187, 0         	JBCLR	PFLAG,0
000328   a330     goto    0x330            	GOTO	_00877_DS_
                                           ;;genSkipc:3291: created from rifx:013B5EFC
                                           ;	.line	1487; "MC32P7351.c"	key_event_handle();
000329   84eb     call    0x4eb            	CALL	_key_event_handle
                                           ;	.line	1488; "MC32P7351.c"	delay_ms(10);
00032a   3c0a     movai   0xa              	MOVAI	0x0a
00032b   5606     movra   0x6              	MOVRA	STK00
00032c   3c00     movai   0                	MOVAI	0x00
00032d   86c4     call    0x6c4            	CALL	_delay_ms
                                           ;	.line	1484; "MC32P7351.c"	for (i = 0; i < 20; i++)
00032e   668a     incr    0x8a             	INCR	_i
00032f   a325     goto    0x325            	GOTO	_00895_DS_
                                           _00877_DS_
                                           ;	.line	1492; "MC32P7351.c"	low_power_scan_handle();
000330   8334     call    0x334            	CALL	_low_power_scan_handle
                                           ;	.line	1499; "MC32P7351.c"	__endasm;
                                           	;
000331   000e     clrwdt                   	CLRWDT;
                                           	
000332   a0cd     goto    0xcd             	GOTO	_00879_DS_
                                           ;	.line	1502; "MC32P7351.c"	}
000333   000c     return                   	RETURN	
                                           ; exit point of _main
                                           
                                           ;***
                                           ;  pBlock Stats: dbName = C
                                           ;***
                                           ;entry:  _low_power_scan_handle	;Function start
                                           ; 2 exit points
                                           ;has an exit
                                           ;functions called:
                                           ;   _CLR_RAM
                                           ;   _adc_config
                                           ;   _adc_sel_pin
                                           ;   _adc_get_val
                                           ;   _Sys_Init
                                           ;   _CLR_RAM
                                           ;   _adc_config
                                           ;   _adc_sel_pin
                                           ;   _adc_get_val
                                           ;   _Sys_Init
                                           ;1 compiler assigned register :
                                           ;   STK00
                                           ;; Starting pCode block
                                           _low_power_scan_handle	;Function start
                                           ; 2 exit points
                                           ;	.line	974; "MC32P7351.c"	if (FLAG_DURING_CHARGING_BAT_IS_NULL || // 只插着充电器且没有电池时，不进入低功耗
000334   fe91     jbclr   0x91, 0x7        	JBCLR	_flag1,7
000335   a33c     goto    0x33c            	GOTO	_00770_DS_
                                           ;	.line	975; "MC32P7351.c"	FLAG_IS_DEVICE_OPEN ||              // 如果设备已经启动，不进入低功耗
000336   f091     jbclr   0x91, 0          	JBCLR	_flag1,0
000337   a33c     goto    0x33c            	GOTO	_00770_DS_
                                           ;	.line	976; "MC32P7351.c"	FLAG_IS_IN_CHARGING ||              // 如果正在充电，不进入低功耗，因为还需要输出PWM来控制充电
000338   f491     jbclr   0x91, 0x2        	JBCLR	_flag1,2
000339   a33c     goto    0x33c            	GOTO	_00770_DS_
                                           ;	.line	977; "MC32P7351.c"	(0 == P01D))                        // 如果检测到 开关/模式 按键按下，不进入低功耗(交给按键事件处理函数来判断是否要开机)
00033a   f390     jbclr   0x190, 0x1       	JBCLR	_IOP0bits,1
00033b   a33d     goto    0x33d            	GOTO	_00775_DS_
                                           _00770_DS_
                                           ;	.line	979; "MC32P7351.c"	return;
00033c   a369     goto    0x369            	GOTO	_00788_DS_
                                           _00775_DS_
                                           ;	.line	997; "MC32P7351.c"	GIE = 0;  // 禁用所有中断
00033d   df88     bclr    0x188, 0x7       	BCLR	_MCRbits,7
                                           ;	.line	998; "MC32P7351.c"	T0EN = 0; // 关闭定时器和PWM输出
00033e   df98     bclr    0x198, 0x7       	BCLR	_T0CRbits,7
                                           ;	.line	999; "MC32P7351.c"	T1EN = 0;
00033f   df9c     bclr    0x19c, 0x7       	BCLR	_T1CRbits,7
                                           ;	.line	1000; "MC32P7351.c"	T2EN = 0;
000340   dfa0     bclr    0x1a0, 0x7       	BCLR	_T2CRbits,7
                                           ;	.line	1001; "MC32P7351.c"	T3EN = 0;
000341   dfa4     bclr    0x1a4, 0x7       	BCLR	_T3CRbits,7
                                           ;	.line	1003; "MC32P7351.c"	PWM0EC = 0;
000342   dd98     bclr    0x198, 0x6       	BCLR	_T0CRbits,6
                                           ;	.line	1004; "MC32P7351.c"	PWM1EC = 0;
000343   dd9c     bclr    0x19c, 0x6       	BCLR	_T1CRbits,6
                                           ;	.line	1005; "MC32P7351.c"	PWM2EC = 0;
000344   dda0     bclr    0x1a0, 0x6       	BCLR	_T2CRbits,6
                                           ;	.line	1006; "MC32P7351.c"	T2DATA = 0;
000345   77a3     clrr    0x1a3            	CLRR	_T2DATA
                                           ;	.line	1007; "MC32P7351.c"	ADEN = 0; // 不使能ad
000346   d1b0     bclr    0x1b0, 0         	BCLR	_ADCR0bits,0
                                           ;	.line	1014; "MC32P7351.c"	LED_WORKING_OFF();
000347   c994     bset    0x194, 0x4       	BSET	_IOP1bits,4
                                           ;	.line	1015; "MC32P7351.c"	LED_CHARGING_OFF();
000348   c990     bset    0x190, 0x4       	BSET	_IOP0bits,4
                                           ;	.line	1016; "MC32P7351.c"	LED_FULL_CHARGE_OFF();
000349   c790     bset    0x190, 0x3       	BSET	_IOP0bits,3
                                           ;	.line	1019; "MC32P7351.c"	P01PU = 1;
00034a   c392     bset    0x192, 0x1       	BSET	_PUP0bits,1
                                           ;	.line	1020; "MC32P7351.c"	P01OE = 0;
00034b   d391     bclr    0x191, 0x1       	BCLR	_OEP0bits,1
                                           ;	.line	1023; "MC32P7351.c"	P00PD = 1;
00034c   c193     bset    0x193, 0         	BSET	_PDP0bits,0
                                           ;	.line	1024; "MC32P7351.c"	P00OE = 0;
00034d   d191     bclr    0x191, 0         	BCLR	_OEP0bits,0
                                           ;	.line	1026; "MC32P7351.c"	HFEN = 0; // 关闭高速时钟
00034e   d1ae     bclr    0x1ae, 0         	BCLR	_OSCMRbits,0
                                           ;	.line	1027; "MC32P7351.c"	LFEN = 1;
00034f   c3ae     bset    0x1ae, 0x1       	BSET	_OSCMRbits,1
                                           ;	.line	1030; "MC32P7351.c"	Nop();
000350   0000     nop                      	nop	
                                           ;	.line	1031; "MC32P7351.c"	Nop();
000351   0000     nop                      	nop	
                                           ;	.line	1032; "MC32P7351.c"	Stop();
000352   000b     stop                     	stop	
                                           ;	.line	1033; "MC32P7351.c"	Nop();
000353   0000     nop                      	nop	
                                           ;	.line	1034; "MC32P7351.c"	Nop();
000354   0000     nop                      	nop	
                                           ;	.line	1036; "MC32P7351.c"	HFEN = 1; // 开启高速时钟
000355   c1ae     bset    0x1ae, 0         	BSET	_OSCMRbits,0
                                           ;	.line	1038; "MC32P7351.c"	CLR_RAM();
000356   86b8     call    0x6b8            	CALL	_CLR_RAM
                                           ;	.line	1040; "MC32P7351.c"	adc_config();
000357   86ac     call    0x6ac            	CALL	_adc_config
                                           ;	.line	1041; "MC32P7351.c"	adc_sel_pin(ADC_PIN_P00_AN0);
000358   3c01     movai   0x1              	MOVAI	0x01
000359   8695     call    0x695            	CALL	_adc_sel_pin
                                           ;	.line	1043; "MC32P7351.c"	adc_val = adc_get_val();
00035a   85f8     call    0x5f8            	CALL	_adc_get_val
00035b   567e     movra   0x7e             	MOVRA	(_adc_val + 1)
00035c   5806     movar   0x6              	MOVAR	STK00
00035d   567d     movra   0x7d             	MOVRA	_adc_val
                                           ;;unsigned compare: left < lit(0x800=2048), size=2
                                           ;	.line	1045; "MC32P7351.c"	if (adc_val < ADCDETECT_CHARING_THRESHOLD && P01D)
00035e   3c08     movai   0x8              	MOVAI	0x08
00035f   487e     rsubar  0x7e             	RSUBAR	(_adc_val + 1)
000360   e587     jbset   0x187, 0x2       	JBSET	PFLAG,2
000361   a364     goto    0x364            	GOTO	_00810_DS_
000362   3c00     movai   0                	MOVAI	0x00
000363   487d     rsubar  0x7d             	RSUBAR	_adc_val
                                           _00810_DS_
000364   f187     jbclr   0x187, 0         	JBCLR	PFLAG,0
000365   a368     goto    0x368            	GOTO	_00786_DS_
                                           ;;genSkipc:3291: created from rifx:013B5EFC
000366   f390     jbclr   0x190, 0x1       	JBCLR	_IOP0bits,1
000367   a33d     goto    0x33d            	GOTO	_00775_DS_
                                           _00786_DS_
                                           ;	.line	1071; "MC32P7351.c"	Sys_Init();
000368   85c1     call    0x5c1            	CALL	_Sys_Init
                                           _00788_DS_
                                           ;	.line	1075; "MC32P7351.c"	}
000369   000c     return                   	RETURN	
                                           ; exit point of _low_power_scan_handle
                                           
                                           ;***
                                           ;  pBlock Stats: dbName = C
                                           ;***
                                           ;entry:  _shutdown_scan_handle	;Function start
                                           ; 2 exit points
                                           ;has an exit
                                           ;; Starting pCode block
                                           _shutdown_scan_handle	;Function start
                                           ; 2 exit points
                                           ;	.line	945; "MC32P7351.c"	if (FLAG_IS_DEVICE_OPEN)
00036a   e091     jbset   0x91, 0          	JBSET	_flag1,0
00036b   a386     goto    0x386            	GOTO	_00753_DS_
                                           ;;unsigned compare: left < lit(0xDBBA0=900000), size=4
                                           ;	.line	949; "MC32P7351.c"	if (shut_down_ms_cnt >= 900000)
00036c   3c00     movai   0                	MOVAI	0x00
00036d   4870     rsubar  0x70             	RSUBAR	(_shut_down_ms_cnt + 3)
00036e   e587     jbset   0x187, 0x2       	JBSET	PFLAG,2
00036f   a37a     goto    0x37a            	GOTO	_00765_DS_
000370   3c0d     movai   0xd              	MOVAI	0x0d
000371   486f     rsubar  0x6f             	RSUBAR	(_shut_down_ms_cnt + 2)
000372   e587     jbset   0x187, 0x2       	JBSET	PFLAG,2
000373   a37a     goto    0x37a            	GOTO	_00765_DS_
000374   3cbb     movai   0xbb             	MOVAI	0xbb
000375   486e     rsubar  0x6e             	RSUBAR	(_shut_down_ms_cnt + 1)
000376   e587     jbset   0x187, 0x2       	JBSET	PFLAG,2
000377   a37a     goto    0x37a            	GOTO	_00765_DS_
000378   3ca0     movai   0xa0             	MOVAI	0xa0
000379   486d     rsubar  0x6d             	RSUBAR	_shut_down_ms_cnt
                                           _00765_DS_
00037a   e187     jbset   0x187, 0         	JBSET	PFLAG,0
00037b   a38a     goto    0x38a            	GOTO	_00755_DS_
                                           ;;genSkipc:3291: created from rifx:013B5EFC
                                           ;	.line	952; "MC32P7351.c"	LED_WORKING_OFF(); // 关闭电源指示灯
00037c   c994     bset    0x194, 0x4       	BSET	_IOP1bits,4
                                           ;	.line	953; "MC32P7351.c"	LED_CHARGING_OFF();
00037d   c990     bset    0x190, 0x4       	BSET	_IOP0bits,4
                                           ;	.line	954; "MC32P7351.c"	HEATING_OFF(); // 关闭加热
00037e   d594     bclr    0x194, 0x2       	BCLR	_IOP1bits,2
                                           ;	.line	955; "MC32P7351.c"	FLAG_IS_HEATING = 0;
00037f   d291     bclr    0x91, 0x1        	BCLR	_flag1,1
                                           ;	.line	956; "MC32P7351.c"	mode_flag = MODE_4; // 下一次切换模式时，会变成 MODE_1
000380   3c03     movai   0x3              	MOVAI	0x03
000381   5688     movra   0x88             	MOVRA	_mode_flag
                                           ;	.line	958; "MC32P7351.c"	PWM0EC = 0;
000382   dd98     bclr    0x198, 0x6       	BCLR	_T0CRbits,6
                                           ;	.line	959; "MC32P7351.c"	PWM1EC = 0;
000383   dd9c     bclr    0x19c, 0x6       	BCLR	_T1CRbits,6
                                           ;	.line	961; "MC32P7351.c"	FLAG_IS_DEVICE_OPEN = 0;
000384   d091     bclr    0x91, 0          	BCLR	_flag1,0
000385   a38a     goto    0x38a            	GOTO	_00755_DS_
                                           _00753_DS_
                                           ;	.line	967; "MC32P7351.c"	shut_down_ms_cnt = 0;
000386   766d     clrr    0x6d             	CLRR	_shut_down_ms_cnt
000387   766e     clrr    0x6e             	CLRR	(_shut_down_ms_cnt + 1)
000388   766f     clrr    0x6f             	CLRR	(_shut_down_ms_cnt + 2)
000389   7670     clrr    0x70             	CLRR	(_shut_down_ms_cnt + 3)
                                           _00755_DS_
                                           ;	.line	969; "MC32P7351.c"	}
00038a   000c     return                   	RETURN	
                                           ; exit point of _shutdown_scan_handle
                                           
                                           ;***
                                           ;  pBlock Stats: dbName = C
                                           ;***
                                           ;entry:  _turn_dir_scan_handle	;Function start
                                           ; 2 exit points
                                           ;has an exit
                                           ;functions called:
                                           ;   _delay_ms
                                           ;   _delay_ms
                                           ;   _delay_ms
                                           ;   _delay_ms
                                           ;1 compiler assigned register :
                                           ;   STK00
                                           ;; Starting pCode block
                                           _turn_dir_scan_handle	;Function start
                                           ; 2 exit points
                                           ;	.line	910; "MC32P7351.c"	if (FLAG_IS_DEVICE_OPEN)
00038b   e091     jbset   0x91, 0          	JBSET	_flag1,0
00038c   a3b6     goto    0x3b6            	GOTO	_00720_DS_
                                           ;;unsigned compare: left < lit(0x1D4C0=120000), size=4
                                           ;	.line	914; "MC32P7351.c"	if (turn_dir_ms_cnt >= (120000) ||
00038d   3c00     movai   0                	MOVAI	0x00
00038e   486c     rsubar  0x6c             	RSUBAR	(_turn_dir_ms_cnt + 3)
00038f   e587     jbset   0x187, 0x2       	JBSET	PFLAG,2
000390   a39b     goto    0x39b            	GOTO	_00736_DS_
000391   3c01     movai   0x1              	MOVAI	0x01
000392   486b     rsubar  0x6b             	RSUBAR	(_turn_dir_ms_cnt + 2)
000393   e587     jbset   0x187, 0x2       	JBSET	PFLAG,2
000394   a39b     goto    0x39b            	GOTO	_00736_DS_
000395   3cd4     movai   0xd4             	MOVAI	0xd4
000396   486a     rsubar  0x6a             	RSUBAR	(_turn_dir_ms_cnt + 1)
000397   e587     jbset   0x187, 0x2       	JBSET	PFLAG,2
000398   a39b     goto    0x39b            	GOTO	_00736_DS_
000399   3cc0     movai   0xc0             	MOVAI	0xc0
00039a   4869     rsubar  0x69             	RSUBAR	_turn_dir_ms_cnt
                                           _00736_DS_
00039b   f187     jbclr   0x187, 0         	JBCLR	PFLAG,0
00039c   a39f     goto    0x39f            	GOTO	_00716_DS_
                                           ;;genSkipc:3291: created from rifx:013B5EFC
                                           ;	.line	915; "MC32P7351.c"	flag_ctl_dir)
00039d   e093     jbset   0x93, 0          	JBSET	_flag3,0
00039e   a3ba     goto    0x3ba            	GOTO	_00722_DS_
                                           _00716_DS_
                                           ;	.line	917; "MC32P7351.c"	if (0 == FLAG_DIR)
00039f   f691     jbclr   0x91, 0x3        	JBCLR	_flag1,3
0003a0   a3a9     goto    0x3a9            	GOTO	_00714_DS_
                                           ;	.line	919; "MC32P7351.c"	PWM1EC = 0;
0003a1   dd9c     bclr    0x19c, 0x6       	BCLR	_T1CRbits,6
                                           ;	.line	920; "MC32P7351.c"	delay_ms(1000);
0003a2   3ce8     movai   0xe8             	MOVAI	0xe8
0003a3   5606     movra   0x6              	MOVRA	STK00
0003a4   3c03     movai   0x3              	MOVAI	0x03
0003a5   86c4     call    0x6c4            	CALL	_delay_ms
                                           ;	.line	921; "MC32P7351.c"	PWM0EC = 1;
0003a6   cd98     bset    0x198, 0x6       	BSET	_T0CRbits,6
                                           ;	.line	922; "MC32P7351.c"	FLAG_DIR = 1; //
0003a7   c691     bset    0x91, 0x3        	BSET	_flag1,3
0003a8   a3b0     goto    0x3b0            	GOTO	_00715_DS_
                                           _00714_DS_
                                           ;	.line	926; "MC32P7351.c"	PWM0EC = 0; //
0003a9   dd98     bclr    0x198, 0x6       	BCLR	_T0CRbits,6
                                           ;	.line	927; "MC32P7351.c"	delay_ms(1000);
0003aa   3ce8     movai   0xe8             	MOVAI	0xe8
0003ab   5606     movra   0x6              	MOVRA	STK00
0003ac   3c03     movai   0x3              	MOVAI	0x03
0003ad   86c4     call    0x6c4            	CALL	_delay_ms
                                           ;	.line	928; "MC32P7351.c"	PWM1EC = 1;   //
0003ae   cd9c     bset    0x19c, 0x6       	BSET	_T1CRbits,6
                                           ;	.line	929; "MC32P7351.c"	FLAG_DIR = 0; //
0003af   d691     bclr    0x91, 0x3        	BCLR	_flag1,3
                                           _00715_DS_
                                           ;	.line	932; "MC32P7351.c"	flag_ctl_dir = 0;
0003b0   d093     bclr    0x93, 0          	BCLR	_flag3,0
                                           ;	.line	933; "MC32P7351.c"	turn_dir_ms_cnt = 0;
0003b1   7669     clrr    0x69             	CLRR	_turn_dir_ms_cnt
0003b2   766a     clrr    0x6a             	CLRR	(_turn_dir_ms_cnt + 1)
0003b3   766b     clrr    0x6b             	CLRR	(_turn_dir_ms_cnt + 2)
0003b4   766c     clrr    0x6c             	CLRR	(_turn_dir_ms_cnt + 3)
0003b5   a3ba     goto    0x3ba            	GOTO	_00722_DS_
                                           _00720_DS_
                                           ;	.line	938; "MC32P7351.c"	turn_dir_ms_cnt = 0; // 设备未运行时，清空计数值
0003b6   7669     clrr    0x69             	CLRR	_turn_dir_ms_cnt
0003b7   766a     clrr    0x6a             	CLRR	(_turn_dir_ms_cnt + 1)
0003b8   766b     clrr    0x6b             	CLRR	(_turn_dir_ms_cnt + 2)
0003b9   766c     clrr    0x6c             	CLRR	(_turn_dir_ms_cnt + 3)
                                           _00722_DS_
                                           ;	.line	940; "MC32P7351.c"	}
0003ba   000c     return                   	RETURN	
                                           ; exit point of _turn_dir_scan_handle
                                           
                                           ;***
                                           ;  pBlock Stats: dbName = C
                                           ;***
                                           ;entry:  _adc_scan_handle	;Function start
                                           ; 2 exit points
                                           ;has an exit
                                           ;functions called:
                                           ;   _adc_sel_pin
                                           ;   _adc_get_val
                                           ;   _key_event_handle
                                           ;   _adc_sel_pin
                                           ;   _adc_get_val
                                           ;   _key_event_handle
                                           ;   _adc_sel_pin
                                           ;   _adc_get_val
                                           ;   _key_event_handle
                                           ;   _adc_sel_pin
                                           ;   _adc_get_val
                                           ;   _key_event_handle
                                           ;1 compiler assigned register :
                                           ;   STK00
                                           ;; Starting pCode block
                                           _adc_scan_handle	;Function start
                                           ; 2 exit points
                                           ;	.line	629; "MC32P7351.c"	volatile u8 cnt = 0;             // 计数值，用于检测电池是否满电，也是用于检测是否插入/拔出充电器的计数值
0003bb   7628     clrr    0x28             	CLRR	_adc_scan_handle_cnt_65536_98
                                           ;	.line	630; "MC32P7351.c"	volatile u8 need_charge_cnt = 0; // 计数值，用于检测是否要快速充电
0003bc   7629     clrr    0x29             	CLRR	_adc_scan_handle_need_charge_cnt_65536_98
                                           ;	.line	632; "MC32P7351.c"	adc_bat_val = 0;
0003bd   7671     clrr    0x71             	CLRR	_adc_bat_val
0003be   7672     clrr    0x72             	CLRR	(_adc_bat_val + 1)
0003bf   7673     clrr    0x73             	CLRR	(_adc_bat_val + 2)
0003c0   7674     clrr    0x74             	CLRR	(_adc_bat_val + 3)
                                           ;	.line	633; "MC32P7351.c"	adc_charging_val = 0;
0003c1   767f     clrr    0x7f             	CLRR	_adc_charging_val
0003c2   7680     clrr    0x80             	CLRR	(_adc_charging_val + 1)
                                           ;	.line	635; "MC32P7351.c"	adc_sel_pin(ADC_PIN_P02_AN1); // 切换到检测电池降压后的电压的检测引脚
0003c3   3c02     movai   0x2              	MOVAI	0x02
0003c4   8695     call    0x695            	CALL	_adc_sel_pin
                                           ;	.line	636; "MC32P7351.c"	for (i = 0; i < 10; i++)      //  // 每55ms进入一次，循环内每次间隔约4.8ms
0003c5   768a     clrr    0x8a             	CLRR	_i
                                           ;;unsigned compare: left < lit(0xA=10), size=1
                                           _00536_DS_
0003c6   3c0a     movai   0xa              	MOVAI	0x0a
0003c7   488a     rsubar  0x8a             	RSUBAR	_i
0003c8   f187     jbclr   0x187, 0         	JBCLR	PFLAG,0
0003c9   a482     goto    0x482            	GOTO	_00489_DS_
                                           ;;genSkipc:3291: created from rifx:013B5EFC
                                           ;	.line	638; "MC32P7351.c"	adc_val = adc_get_val();
0003ca   85f8     call    0x5f8            	CALL	_adc_get_val
0003cb   567e     movra   0x7e             	MOVRA	(_adc_val + 1)
0003cc   5806     movar   0x6              	MOVAR	STK00
0003cd   567d     movra   0x7d             	MOVRA	_adc_val
                                           ;	.line	640; "MC32P7351.c"	if (i == 0)
0003ce   3c00     movai   0                	MOVAI	0x00
0003cf   5c8a     orar    0x8a             	ORAR	_i
0003d0   e587     jbset   0x187, 0x2       	JBSET	PFLAG,2
0003d1   a3d8     goto    0x3d8            	GOTO	_00413_DS_
                                           ;	.line	642; "MC32P7351.c"	adc_bat_val = adc_val;
0003d2   587d     movar   0x7d             	MOVAR	_adc_val
0003d3   5671     movra   0x71             	MOVRA	_adc_bat_val
0003d4   587e     movar   0x7e             	MOVAR	(_adc_val + 1)
0003d5   5672     movra   0x72             	MOVRA	(_adc_bat_val + 1)
0003d6   7673     clrr    0x73             	CLRR	(_adc_bat_val + 2)
0003d7   7674     clrr    0x74             	CLRR	(_adc_bat_val + 3)
                                           _00413_DS_
                                           ;	.line	645; "MC32P7351.c"	if (FLAG_IS_IN_CHARGING)
0003d8   e491     jbset   0x91, 0x2        	JBSET	_flag1,2
0003d9   a437     goto    0x437            	GOTO	_00487_DS_
                                           ;;unsigned compare: left < lit(0xF52=3922), size=2
                                           ;	.line	648; "MC32P7351.c"	if (adc_val >= ADCDETECT_BAT_FULL + ADCDETECT_BAT_NULL_EX)
0003da   3c0f     movai   0xf              	MOVAI	0x0f
0003db   487e     rsubar  0x7e             	RSUBAR	(_adc_val + 1)
0003dc   e587     jbset   0x187, 0x2       	JBSET	PFLAG,2
0003dd   a3e0     goto    0x3e0            	GOTO	_00692_DS_
0003de   3c52     movai   0x52             	MOVAI	0x52
0003df   487d     rsubar  0x7d             	RSUBAR	_adc_val
                                           _00692_DS_
0003e0   e187     jbset   0x187, 0         	JBSET	PFLAG,0
0003e1   a3e4     goto    0x3e4            	GOTO	_00415_DS_
                                           ;;genSkipc:3291: created from rifx:013B5EFC
                                           ;	.line	651; "MC32P7351.c"	T2DATA = 0;
0003e2   77a3     clrr    0x1a3            	CLRR	_T2DATA
                                           ;	.line	652; "MC32P7351.c"	over_charging_cnt++;
0003e3   668d     incr    0x8d             	INCR	_over_charging_cnt
                                           ;;unsigned compare: left < lit(0xE3A=3642), size=2
                                           _00415_DS_
                                           ;	.line	655; "MC32P7351.c"	if (adc_val >= ADCDETECT_BAT_FULL) // 检测电池是否满电
0003e4   3c0e     movai   0xe              	MOVAI	0x0e
0003e5   487e     rsubar  0x7e             	RSUBAR	(_adc_val + 1)
0003e6   e587     jbset   0x187, 0x2       	JBSET	PFLAG,2
0003e7   a3ea     goto    0x3ea            	GOTO	_00693_DS_
0003e8   3c3a     movai   0x3a             	MOVAI	0x3a
0003e9   487d     rsubar  0x7d             	RSUBAR	_adc_val
                                           _00693_DS_
0003ea   e187     jbset   0x187, 0         	JBSET	PFLAG,0
0003eb   a3ee     goto    0x3ee            	GOTO	_00419_DS_
                                           ;;genSkipc:3291: created from rifx:013B5EFC
                                           ;	.line	657; "MC32P7351.c"	cnt++;
0003ec   6628     incr    0x28             	INCR	_adc_scan_handle_cnt_65536_98
0003ed   a3f7     goto    0x3f7            	GOTO	_00420_DS_
                                           ;;unsigned compare: left < lit(0xD90=3472), size=2
                                           _00419_DS_
                                           ;	.line	659; "MC32P7351.c"	else if (adc_val < ADCDETECT_BAT_WILL_FULL) // 检测是否要快速充电
0003ee   3c0d     movai   0xd              	MOVAI	0x0d
0003ef   487e     rsubar  0x7e             	RSUBAR	(_adc_val + 1)
0003f0   e587     jbset   0x187, 0x2       	JBSET	PFLAG,2
0003f1   a3f4     goto    0x3f4            	GOTO	_00694_DS_
0003f2   3c90     movai   0x90             	MOVAI	0x90
0003f3   487d     rsubar  0x7d             	RSUBAR	_adc_val
                                           _00694_DS_
0003f4   f187     jbclr   0x187, 0         	JBCLR	PFLAG,0
0003f5   a3f7     goto    0x3f7            	GOTO	_00420_DS_
                                           ;;genSkipc:3291: created from rifx:013B5EFC
                                           ;	.line	661; "MC32P7351.c"	need_charge_cnt++;
0003f6   6629     incr    0x29             	INCR	_adc_scan_handle_need_charge_cnt_65536_98
                                           ;;unsigned compare: left < lit(0xAB3420=11220000), size=4
                                           _00420_DS_
                                           ;	.line	665; "MC32P7351.c"	if (charge_time_cnt >= ((u32)3 * 60 * 60 * 1000 + (u32)7 * 60 * 1000) && 0 == flag_is_led_breath_disable) // 3h7min
0003f7   3c00     movai   0                	MOVAI	0x00
0003f8   487c     rsubar  0x7c             	RSUBAR	(_charge_time_cnt + 3)
0003f9   e587     jbset   0x187, 0x2       	JBSET	PFLAG,2
0003fa   a405     goto    0x405            	GOTO	_00695_DS_
0003fb   3cab     movai   0xab             	MOVAI	0xab
0003fc   487b     rsubar  0x7b             	RSUBAR	(_charge_time_cnt + 2)
0003fd   e587     jbset   0x187, 0x2       	JBSET	PFLAG,2
0003fe   a405     goto    0x405            	GOTO	_00695_DS_
0003ff   3c34     movai   0x34             	MOVAI	0x34
000400   487a     rsubar  0x7a             	RSUBAR	(_charge_time_cnt + 1)
000401   e587     jbset   0x187, 0x2       	JBSET	PFLAG,2
000402   a405     goto    0x405            	GOTO	_00695_DS_
000403   3c20     movai   0x20             	MOVAI	0x20
000404   4879     rsubar  0x79             	RSUBAR	_charge_time_cnt
                                           _00695_DS_
000405   e187     jbset   0x187, 0         	JBSET	PFLAG,0
000406   a40c     goto    0x40c            	GOTO	_00428_DS_
                                           ;;genSkipc:3291: created from rifx:013B5EFC
000407   fc93     jbclr   0x93, 0x6        	JBCLR	_flag3,6
000408   a40c     goto    0x40c            	GOTO	_00428_DS_
                                           ;	.line	671; "MC32P7351.c"	flag_is_led_breath_disable = 1;
000409   cc93     bset    0x93, 0x6        	BSET	_flag3,6
                                           ;	.line	672; "MC32P7351.c"	LED_CHARGING_OFF(); // 关闭充电指示灯
00040a   c990     bset    0x190, 0x4       	BSET	_IOP0bits,4
                                           ;	.line	673; "MC32P7351.c"	LED_WORKING_ON();   // 打开电源指示灯，表示充满电
00040b   d994     bclr    0x194, 0x4       	BCLR	_IOP1bits,4
                                           _00428_DS_
                                           ;	.line	676; "MC32P7351.c"	if (flag_bat_is_empty)
00040c   3c00     movai   0                	MOVAI	0x00
00040d   5c8c     orar    0x8c             	ORAR	_flag_bat_is_empty
00040e   f587     jbclr   0x187, 0x2       	JBCLR	PFLAG,2
00040f   a416     goto    0x416            	GOTO	_00452_DS_
                                           ;	.line	680; "MC32P7351.c"	LED_CHARGING_OFF(); // 关闭充电指示灯
000410   c990     bset    0x190, 0x4       	BSET	_IOP0bits,4
                                           ;	.line	681; "MC32P7351.c"	PWM2EC = 0;         // 关闭控制升压电路的pwm（建议是，插上充钱器时，不关闭控制升压电路的PWM，但是在测试时，充电一侧会严重发热）
000411   dda0     bclr    0x1a0, 0x6       	BCLR	_T2CRbits,6
                                           ;	.line	682; "MC32P7351.c"	T2DATA = 0;
000412   77a3     clrr    0x1a3            	CLRR	_T2DATA
                                           ;	.line	683; "MC32P7351.c"	FLAG_BAT_IS_NEED_CHARGE = 0;
000413   d891     bclr    0x91, 0x4        	BCLR	_flag1,4
                                           ;	.line	684; "MC32P7351.c"	FLAG_DURING_CHARGING_BAT_IS_NULL = 1; // 标志位置一，在主循环让绿灯快闪
000414   ce91     bset    0x91, 0x7        	BSET	_flag1,7
                                           ;	.line	686; "MC32P7351.c"	break;
000415   a482     goto    0x482            	GOTO	_00489_DS_
                                           ;;unsigned compare: left < lit(0x8=8), size=1
                                           _00452_DS_
                                           ;	.line	688; "MC32P7351.c"	else if (cnt >= 8 || over_charging_cnt >= 8)
000416   3c08     movai   0x8              	MOVAI	0x08
000417   4828     rsubar  0x28             	RSUBAR	_adc_scan_handle_cnt_65536_98
000418   f187     jbclr   0x187, 0         	JBCLR	PFLAG,0
000419   a41e     goto    0x41e            	GOTO	_00447_DS_
                                           ;;genSkipc:3291: created from rifx:013B5EFC
                                           ;;unsigned compare: left < lit(0x8=8), size=1
00041a   3c08     movai   0x8              	MOVAI	0x08
00041b   488d     rsubar  0x8d             	RSUBAR	_over_charging_cnt
00041c   e187     jbset   0x187, 0         	JBSET	PFLAG,0
00041d   a42f     goto    0x42f            	GOTO	_00448_DS_
                                           ;;genSkipc:3291: created from rifx:013B5EFC
                                           _00447_DS_
                                           ;	.line	691; "MC32P7351.c"	full_charge_cnt++;
00041e   668e     incr    0x8e             	INCR	_full_charge_cnt
                                           ;;unsigned compare: left < lit(0x64=100), size=1
                                           ;	.line	692; "MC32P7351.c"	if (full_charge_cnt >= 100 || over_charging_cnt >= 8) // 5.5s或者是连续触发了若干次过充保护
00041f   3c64     movai   0x64             	MOVAI	0x64
000420   488e     rsubar  0x8e             	RSUBAR	_full_charge_cnt
000421   f187     jbclr   0x187, 0         	JBCLR	PFLAG,0
000422   a427     goto    0x427            	GOTO	_00439_DS_
                                           ;;genSkipc:3291: created from rifx:013B5EFC
                                           ;;unsigned compare: left < lit(0x8=8), size=1
000423   3c08     movai   0x8              	MOVAI	0x08
000424   488d     rsubar  0x8d             	RSUBAR	_over_charging_cnt
000425   e187     jbset   0x187, 0         	JBSET	PFLAG,0
000426   a47f     goto    0x47f            	GOTO	_00488_DS_
                                           ;;genSkipc:3291: created from rifx:013B5EFC
                                           _00439_DS_
                                           ;	.line	694; "MC32P7351.c"	full_charge_cnt = 0; //
000427   768e     clrr    0x8e             	CLRR	_full_charge_cnt
                                           ;	.line	696; "MC32P7351.c"	PWM2EC = 0; // 关闭控制升压电路的pwm
000428   dda0     bclr    0x1a0, 0x6       	BCLR	_T2CRbits,6
                                           ;	.line	697; "MC32P7351.c"	T2DATA = 0;
000429   77a3     clrr    0x1a3            	CLRR	_T2DATA
                                           ;	.line	699; "MC32P7351.c"	FLAG_BAT_IS_NEED_CHARGE = 0;
00042a   d891     bclr    0x91, 0x4        	BCLR	_flag1,4
                                           ;	.line	700; "MC32P7351.c"	FLAG_BAT_IS_FULL = 1;
00042b   ca91     bset    0x91, 0x5        	BSET	_flag1,5
                                           ;	.line	702; "MC32P7351.c"	LED_CHARGING_OFF(); // 关闭充电指示灯
00042c   c990     bset    0x190, 0x4       	BSET	_IOP0bits,4
                                           ;	.line	705; "MC32P7351.c"	LED_WORKING_ON(); // 打开电源指示灯，表示充满电
00042d   d994     bclr    0x194, 0x4       	BCLR	_IOP1bits,4
                                           ;	.line	706; "MC32P7351.c"	break;
00042e   a482     goto    0x482            	GOTO	_00489_DS_
                                           ;;unsigned compare: left < lit(0x8=8), size=1
                                           _00448_DS_
                                           ;	.line	709; "MC32P7351.c"	else if (need_charge_cnt >= 8)
00042f   3c08     movai   0x8              	MOVAI	0x08
000430   4829     rsubar  0x29             	RSUBAR	_adc_scan_handle_need_charge_cnt_65536_98
000431   e187     jbset   0x187, 0         	JBSET	PFLAG,0
000432   a47f     goto    0x47f            	GOTO	_00488_DS_
                                           ;;genSkipc:3291: created from rifx:013B5EFC
                                           ;	.line	713; "MC32P7351.c"	LED_FULL_CHARGE_OFF(); // 关闭充满电的指示灯
000433   c790     bset    0x190, 0x3       	BSET	_IOP0bits,3
                                           ;	.line	714; "MC32P7351.c"	FLAG_BAT_IS_NEED_CHARGE = 1;
000434   c891     bset    0x91, 0x4        	BSET	_flag1,4
                                           ;	.line	715; "MC32P7351.c"	FLAG_BAT_IS_FULL = 0;
000435   da91     bclr    0x91, 0x5        	BCLR	_flag1,5
                                           ;	.line	716; "MC32P7351.c"	break;
000436   a482     goto    0x482            	GOTO	_00489_DS_
                                           _00487_DS_
                                           ;	.line	722; "MC32P7351.c"	if (flag_bat_is_empty == 0 && adc_val <= ADCDETECT_BAT_FULL - ((ADCDETECT_BAT_FULL - ADCDETECT_BAT_WILL_FULL) / 2))
000437   3c00     movai   0                	MOVAI	0x00
000438   5c8c     orar    0x8c             	ORAR	_flag_bat_is_empty
000439   e587     jbset   0x187, 0x2       	JBSET	PFLAG,2
00043a   a444     goto    0x444            	GOTO	_00455_DS_
                                           ;;swapping arguments (AOP_TYPEs 1/3)
                                           ;;unsigned compare: left >= lit(0xDE6=3558), size=2
00043b   3c0d     movai   0xd              	MOVAI	0x0d
00043c   487e     rsubar  0x7e             	RSUBAR	(_adc_val + 1)
00043d   e587     jbset   0x187, 0x2       	JBSET	PFLAG,2
00043e   a441     goto    0x441            	GOTO	_00701_DS_
00043f   3ce6     movai   0xe6             	MOVAI	0xe6
000440   487d     rsubar  0x7d             	RSUBAR	_adc_val
                                           _00701_DS_
000441   f187     jbclr   0x187, 0         	JBCLR	PFLAG,0
000442   a444     goto    0x444            	GOTO	_00455_DS_
                                           ;;genSkipc:3291: created from rifx:013B5EFC
                                           ;	.line	724; "MC32P7351.c"	cnt++;
000443   6628     incr    0x28             	INCR	_adc_scan_handle_cnt_65536_98
                                           ;;unsigned compare: left < lit(0x8=8), size=1
                                           _00455_DS_
                                           ;	.line	727; "MC32P7351.c"	if (cnt >= 8)
000444   3c08     movai   0x8              	MOVAI	0x08
000445   4828     rsubar  0x28             	RSUBAR	_adc_scan_handle_cnt_65536_98
000446   e187     jbset   0x187, 0         	JBSET	PFLAG,0
000447   a44b     goto    0x44b            	GOTO	_00458_DS_
                                           ;;genSkipc:3291: created from rifx:013B5EFC
                                           ;	.line	730; "MC32P7351.c"	FLAG_BAT_IS_NEED_CHARGE = 1;
000448   c891     bset    0x91, 0x4        	BSET	_flag1,4
                                           ;	.line	731; "MC32P7351.c"	FLAG_BAT_IS_FULL = 0;
000449   da91     bclr    0x91, 0x5        	BCLR	_flag1,5
                                           ;	.line	732; "MC32P7351.c"	break;
00044a   a482     goto    0x482            	GOTO	_00489_DS_
                                           _00458_DS_
                                           ;	.line	736; "MC32P7351.c"	flag_bat_is_empty == 0 &&  /* 电池不为空 */
00044b   3c00     movai   0                	MOVAI	0x00
00044c   5c8c     orar    0x8c             	ORAR	_flag_bat_is_empty
00044d   e587     jbset   0x187, 0x2       	JBSET	PFLAG,2
00044e   a45b     goto    0x45b            	GOTO	_00465_DS_
                                           ;	.line	737; "MC32P7351.c"	FLAG_IS_DEVICE_OPEN &&     /* 设备正在运行 */
00044f   e091     jbset   0x91, 0          	JBSET	_flag1,0
000450   a45b     goto    0x45b            	GOTO	_00465_DS_
                                           ;;unsigned compare: left < lit(0xA93=2707), size=2
                                           ;	.line	739; "MC32P7351.c"	)
000451   3c0a     movai   0xa              	MOVAI	0x0a
000452   487e     rsubar  0x7e             	RSUBAR	(_adc_val + 1)
000453   e587     jbset   0x187, 0x2       	JBSET	PFLAG,2
000454   a457     goto    0x457            	GOTO	_00703_DS_
000455   3c93     movai   0x93             	MOVAI	0x93
000456   487d     rsubar  0x7d             	RSUBAR	_adc_val
                                           _00703_DS_
000457   f187     jbclr   0x187, 0         	JBCLR	PFLAG,0
000458   a45b     goto    0x45b            	GOTO	_00465_DS_
                                           ;;genSkipc:3291: created from rifx:013B5EFC
                                           ;	.line	741; "MC32P7351.c"	flag_tim_scan_maybe_shut_down = 1;
000459   c693     bset    0x93, 0x3        	BSET	_flag3,3
00045a   a46e     goto    0x46e            	GOTO	_00466_DS_
                                           _00465_DS_
                                           ;	.line	743; "MC32P7351.c"	else if (flag_bat_is_empty == 0 &&
00045b   3c00     movai   0                	MOVAI	0x00
00045c   5c8c     orar    0x8c             	ORAR	_flag_bat_is_empty
00045d   e587     jbset   0x187, 0x2       	JBSET	PFLAG,2
00045e   a46c     goto    0x46c            	GOTO	_00460_DS_
                                           ;	.line	744; "MC32P7351.c"	FLAG_IS_DEVICE_OPEN &&
00045f   e091     jbset   0x91, 0          	JBSET	_flag1,0
000460   a46c     goto    0x46c            	GOTO	_00460_DS_
                                           ;;unsigned compare: left < lit(0xB15=2837), size=2
                                           ;	.line	745; "MC32P7351.c"	adc_val < LOW_BATTERY_AD_VAL)
000461   3c0b     movai   0xb              	MOVAI	0x0b
000462   487e     rsubar  0x7e             	RSUBAR	(_adc_val + 1)
000463   e587     jbset   0x187, 0x2       	JBSET	PFLAG,2
000464   a467     goto    0x467            	GOTO	_00704_DS_
000465   3c15     movai   0x15             	MOVAI	0x15
000466   487d     rsubar  0x7d             	RSUBAR	_adc_val
                                           _00704_DS_
000467   f187     jbclr   0x187, 0         	JBCLR	PFLAG,0
000468   a46c     goto    0x46c            	GOTO	_00460_DS_
                                           ;;genSkipc:3291: created from rifx:013B5EFC
                                           ;	.line	748; "MC32P7351.c"	flag_maybe_low_battery = 1;
000469   c493     bset    0x93, 0x2        	BSET	_flag3,2
                                           ;	.line	749; "MC32P7351.c"	flag_tim_scan_maybe_shut_down = 0;
00046a   d693     bclr    0x93, 0x3        	BCLR	_flag3,3
00046b   a46e     goto    0x46e            	GOTO	_00466_DS_
                                           _00460_DS_
                                           ;	.line	753; "MC32P7351.c"	flag_maybe_low_battery = 0;
00046c   d493     bclr    0x93, 0x2        	BCLR	_flag3,2
                                           ;	.line	754; "MC32P7351.c"	flag_tim_scan_maybe_shut_down = 0;
00046d   d693     bclr    0x93, 0x3        	BCLR	_flag3,3
                                           _00466_DS_
                                           ;	.line	758; "MC32P7351.c"	if (flag_is_needed_shut_down && FLAG_IS_DEVICE_OPEN)
00046e   e893     jbset   0x93, 0x4        	JBSET	_flag3,4
00046f   a47f     goto    0x47f            	GOTO	_00488_DS_
000470   e091     jbset   0x91, 0          	JBSET	_flag1,0
000471   a47f     goto    0x47f            	GOTO	_00488_DS_
                                           ;	.line	760; "MC32P7351.c"	flag_is_needed_shut_down = 0;
000472   d893     bclr    0x93, 0x4        	BCLR	_flag3,4
                                           ;	.line	762; "MC32P7351.c"	LED_WORKING_OFF(); // 关闭电源指示灯
000473   c994     bset    0x194, 0x4       	BSET	_IOP1bits,4
                                           ;	.line	763; "MC32P7351.c"	LED_CHARGING_OFF();
000474   c990     bset    0x190, 0x4       	BSET	_IOP0bits,4
                                           ;	.line	764; "MC32P7351.c"	HEATING_OFF(); // 关闭加热
000475   d594     bclr    0x194, 0x2       	BCLR	_IOP1bits,2
                                           ;	.line	765; "MC32P7351.c"	FLAG_IS_DEVICE_OPEN = 0;
000476   d091     bclr    0x91, 0          	BCLR	_flag1,0
                                           ;	.line	766; "MC32P7351.c"	FLAG_IS_HEATING = 0;
000477   d291     bclr    0x91, 0x1        	BCLR	_flag1,1
                                           ;	.line	768; "MC32P7351.c"	if (flag_is_low_battery)
000478   e492     jbset   0x92, 0x2        	JBSET	_flag2,2
000479   a47c     goto    0x47c            	GOTO	_00482_DS_
                                           ;	.line	771; "MC32P7351.c"	flag_is_low_battery = 0;
00047a   d492     bclr    0x92, 0x2        	BCLR	_flag2,2
                                           ;	.line	772; "MC32P7351.c"	LED_CHARGING_OFF(); // 关闭用于报警的LED
00047b   c990     bset    0x190, 0x4       	BSET	_IOP0bits,4
                                           _00482_DS_
                                           ;	.line	775; "MC32P7351.c"	mode_flag = MODE_1; // 下一次切换模式时，会变成 MODE_2
00047c   7688     clrr    0x88             	CLRR	_mode_flag
                                           ;	.line	778; "MC32P7351.c"	PWM0EC = 0;
00047d   dd98     bclr    0x198, 0x6       	BCLR	_T0CRbits,6
                                           ;	.line	779; "MC32P7351.c"	PWM1EC = 0;
00047e   dd9c     bclr    0x19c, 0x6       	BCLR	_T1CRbits,6
                                           _00488_DS_
                                           ;	.line	784; "MC32P7351.c"	key_event_handle();
00047f   84eb     call    0x4eb            	CALL	_key_event_handle
                                           ;	.line	636; "MC32P7351.c"	for (i = 0; i < 10; i++)      //  // 每55ms进入一次，循环内每次间隔约4.8ms
000480   668a     incr    0x8a             	INCR	_i
000481   a3c6     goto    0x3c6            	GOTO	_00536_DS_
                                           _00489_DS_
                                           ;	.line	787; "MC32P7351.c"	cnt = 0;
000482   7628     clrr    0x28             	CLRR	_adc_scan_handle_cnt_65536_98
                                           ;	.line	788; "MC32P7351.c"	adc_sel_pin(ADC_PIN_P00_AN0); // 切换到检测充电的电压检测引脚(检测到的充电电压 == USB-C口电压 / 2)
000483   3c01     movai   0x1              	MOVAI	0x01
000484   8695     call    0x695            	CALL	_adc_sel_pin
                                           ;	.line	789; "MC32P7351.c"	for (i = 0; i < 10; i++)
000485   768a     clrr    0x8a             	CLRR	_i
                                           ;;unsigned compare: left < lit(0xA=10), size=1
                                           _00539_DS_
000486   3c0a     movai   0xa              	MOVAI	0x0a
000487   488a     rsubar  0x8a             	RSUBAR	_i
000488   f187     jbclr   0x187, 0         	JBCLR	PFLAG,0
000489   a4ea     goto    0x4ea            	GOTO	_00541_DS_
                                           ;;genSkipc:3291: created from rifx:013B5EFC
                                           ;	.line	791; "MC32P7351.c"	adc_val = adc_get_val();
00048a   85f8     call    0x5f8            	CALL	_adc_get_val
00048b   567e     movra   0x7e             	MOVRA	(_adc_val + 1)
00048c   5806     movar   0x6              	MOVAR	STK00
00048d   567d     movra   0x7d             	MOVRA	_adc_val
                                           ;	.line	792; "MC32P7351.c"	if (flag_bat_is_empty) // 如果电池为空
00048e   3c00     movai   0                	MOVAI	0x00
00048f   5c8c     orar    0x8c             	ORAR	_flag_bat_is_empty
000490   f587     jbclr   0x187, 0x2       	JBCLR	PFLAG,2
000491   a496     goto    0x496            	GOTO	_00491_DS_
                                           ;	.line	794; "MC32P7351.c"	adc_val = 4095; // 防止进入下面的if (adc_val < ADCDETECT_CHARING_THRESHOLD)
000492   3cff     movai   0xff             	MOVAI	0xff
000493   567d     movra   0x7d             	MOVRA	_adc_val
000494   3c0f     movai   0xf              	MOVAI	0x0f
000495   567e     movra   0x7e             	MOVRA	(_adc_val + 1)
                                           _00491_DS_
                                           ;	.line	797; "MC32P7351.c"	if (adc_charging_val != 0)
000496   587f     movar   0x7f             	MOVAR	_adc_charging_val
000497   5c80     orar    0x80             	ORAR	(_adc_charging_val + 1)
000498   f587     jbclr   0x187, 0x2       	JBCLR	PFLAG,2
000499   a4a4     goto    0x4a4            	GOTO	_00493_DS_
                                           ;	.line	799; "MC32P7351.c"	adc_charging_val += adc_val;
00049a   587d     movar   0x7d             	MOVAR	_adc_val
00049b   7e7f     addra   0x7f             	ADDRA	_adc_charging_val
00049c   587e     movar   0x7e             	MOVAR	(_adc_val + 1)
00049d   f187     jbclr   0x187, 0         	JBCLR	PFLAG,0
00049e   607e     jzar    0x7e             	JZAR	(_adc_val + 1)
00049f   7e80     addra   0x80             	ADDRA	(_adc_charging_val + 1)
                                           ;;shiftRight_Left2ResultLit:5339: shCount=1, size=2, sign=0, same=1, offr=0
                                           ;	.line	800; "MC32P7351.c"	adc_charging_val /= 2;
0004a0   d187     bclr    0x187, 0         	BCLR	PFLAG,0
0004a1   4e80     rrr     0x80             	RRR	(_adc_charging_val + 1)
0004a2   4e7f     rrr     0x7f             	RRR	_adc_charging_val
0004a3   a4aa     goto    0x4aa            	GOTO	_00494_DS_
                                           _00493_DS_
                                           ;	.line	804; "MC32P7351.c"	adc_charging_val += adc_val;
0004a4   587d     movar   0x7d             	MOVAR	_adc_val
0004a5   7e7f     addra   0x7f             	ADDRA	_adc_charging_val
0004a6   587e     movar   0x7e             	MOVAR	(_adc_val + 1)
0004a7   f187     jbclr   0x187, 0         	JBCLR	PFLAG,0
0004a8   607e     jzar    0x7e             	JZAR	(_adc_val + 1)
0004a9   7e80     addra   0x80             	ADDRA	(_adc_charging_val + 1)
                                           _00494_DS_
                                           ;	.line	807; "MC32P7351.c"	if (FLAG_IS_IN_CHARGING)
0004aa   e491     jbset   0x91, 0x2        	JBSET	_flag1,2
0004ab   a4c8     goto    0x4c8            	GOTO	_00532_DS_
                                           ;;unsigned compare: left < lit(0x800=2048), size=2
                                           ;	.line	810; "MC32P7351.c"	if (adc_val < ADCDETECT_CHARING_THRESHOLD)
0004ac   3c08     movai   0x8              	MOVAI	0x08
0004ad   487e     rsubar  0x7e             	RSUBAR	(_adc_val + 1)
0004ae   e587     jbset   0x187, 0x2       	JBSET	PFLAG,2
0004af   a4b2     goto    0x4b2            	GOTO	_00706_DS_
0004b0   3c00     movai   0                	MOVAI	0x00
0004b1   487d     rsubar  0x7d             	RSUBAR	_adc_val
                                           _00706_DS_
0004b2   f187     jbclr   0x187, 0         	JBCLR	PFLAG,0
0004b3   a4b5     goto    0x4b5            	GOTO	_00496_DS_
                                           ;;genSkipc:3291: created from rifx:013B5EFC
                                           ;	.line	812; "MC32P7351.c"	cnt++;
0004b4   6628     incr    0x28             	INCR	_adc_scan_handle_cnt_65536_98
                                           ;;unsigned compare: left < lit(0x8=8), size=1
                                           _00496_DS_
                                           ;	.line	815; "MC32P7351.c"	if (cnt >= 8)
0004b5   3c08     movai   0x8              	MOVAI	0x08
0004b6   4828     rsubar  0x28             	RSUBAR	_adc_scan_handle_cnt_65536_98
0004b7   e187     jbset   0x187, 0         	JBSET	PFLAG,0
0004b8   a4c2     goto    0x4c2            	GOTO	_00507_DS_
                                           ;;genSkipc:3291: created from rifx:013B5EFC
                                           ;	.line	818; "MC32P7351.c"	FLAG_IS_IN_CHARGING = 0;
0004b9   d491     bclr    0x91, 0x2        	BCLR	_flag1,2
                                           ;	.line	819; "MC32P7351.c"	LED_CHARGING_OFF(); // 关闭充电指示灯
0004ba   c990     bset    0x190, 0x4       	BSET	_IOP0bits,4
                                           ;	.line	820; "MC32P7351.c"	PWM2EC = 0;         // 关闭控制升压电路的pwm
0004bb   dda0     bclr    0x1a0, 0x6       	BCLR	_T2CRbits,6
                                           ;	.line	821; "MC32P7351.c"	T2DATA = 0;
0004bc   77a3     clrr    0x1a3            	CLRR	_T2DATA
                                           ;	.line	822; "MC32P7351.c"	LED_FULL_CHARGE_OFF(); // 关闭电池充满电的指示灯
0004bd   c790     bset    0x190, 0x3       	BSET	_IOP0bits,3
                                           ;	.line	823; "MC32P7351.c"	LED_WORKING_OFF();     // 关闭电池充满电的指示灯（白灯）
0004be   c994     bset    0x194, 0x4       	BSET	_IOP1bits,4
                                           ;	.line	825; "MC32P7351.c"	FLAG_DURING_CHARGING_BAT_IS_NULL = 0; // 清空该标志位，因为已经不在充电的情况下
0004bf   de91     bclr    0x91, 0x7        	BCLR	_flag1,7
                                           ;	.line	827; "MC32P7351.c"	flag_is_led_breath_disable = 0; // 清空该标志位
0004c0   dc93     bclr    0x93, 0x6        	BCLR	_flag3,6
                                           ;	.line	828; "MC32P7351.c"	break;
0004c1   a4ea     goto    0x4ea            	GOTO	_00541_DS_
                                           _00507_DS_
                                           ;	.line	831; "MC32P7351.c"	if (FLAG_IS_DEVICE_OPEN)
0004c2   f091     jbclr   0x91, 0          	JBCLR	_flag1,0
0004c3   a4e7     goto    0x4e7            	GOTO	_00533_DS_
                                           ;	.line	836; "MC32P7351.c"	if (FLAG_BAT_IS_FULL)
0004c4   fa91     jbclr   0x91, 0x5        	JBCLR	_flag1,5
0004c5   a4e7     goto    0x4e7            	GOTO	_00533_DS_
                                           ;	.line	842; "MC32P7351.c"	LED_FULL_CHARGE_OFF();
0004c6   c790     bset    0x190, 0x3       	BSET	_IOP0bits,3
0004c7   a4e7     goto    0x4e7            	GOTO	_00533_DS_
                                           _00532_DS_
                                           ;	.line	852; "MC32P7351.c"	if (flag_bat_is_empty == 0 && adc_val >= ADCDETECT_CHARING_THRESHOLD)
0004c8   3c00     movai   0                	MOVAI	0x00
0004c9   5c8c     orar    0x8c             	ORAR	_flag_bat_is_empty
0004ca   e587     jbset   0x187, 0x2       	JBSET	PFLAG,2
0004cb   a4d5     goto    0x4d5            	GOTO	_00518_DS_
                                           ;;unsigned compare: left < lit(0x800=2048), size=2
0004cc   3c08     movai   0x8              	MOVAI	0x08
0004cd   487e     rsubar  0x7e             	RSUBAR	(_adc_val + 1)
0004ce   e587     jbset   0x187, 0x2       	JBSET	PFLAG,2
0004cf   a4d2     goto    0x4d2            	GOTO	_00708_DS_
0004d0   3c00     movai   0                	MOVAI	0x00
0004d1   487d     rsubar  0x7d             	RSUBAR	_adc_val
                                           _00708_DS_
0004d2   e187     jbset   0x187, 0         	JBSET	PFLAG,0
0004d3   a4d5     goto    0x4d5            	GOTO	_00518_DS_
                                           ;;genSkipc:3291: created from rifx:013B5EFC
                                           ;	.line	854; "MC32P7351.c"	cnt++;
0004d4   6628     incr    0x28             	INCR	_adc_scan_handle_cnt_65536_98
                                           ;;unsigned compare: left < lit(0x8=8), size=1
                                           _00518_DS_
                                           ;	.line	857; "MC32P7351.c"	if (cnt >= 8)
0004d5   3c08     movai   0x8              	MOVAI	0x08
0004d6   4828     rsubar  0x28             	RSUBAR	_adc_scan_handle_cnt_65536_98
0004d7   e187     jbset   0x187, 0         	JBSET	PFLAG,0
0004d8   a4e7     goto    0x4e7            	GOTO	_00533_DS_
                                           ;;genSkipc:3291: created from rifx:013B5EFC
                                           ;	.line	861; "MC32P7351.c"	full_charge_cnt = 0;
0004d9   768e     clrr    0x8e             	CLRR	_full_charge_cnt
                                           ;	.line	862; "MC32P7351.c"	over_charging_cnt = 0;
0004da   768d     clrr    0x8d             	CLRR	_over_charging_cnt
                                           ;	.line	864; "MC32P7351.c"	FLAG_IS_IN_CHARGING = 1;
0004db   c491     bset    0x91, 0x2        	BSET	_flag1,2
                                           ;	.line	867; "MC32P7351.c"	PWM2EC = 1; // 开启控制升压电路的pwm
0004dc   cda0     bset    0x1a0, 0x6       	BSET	_T2CRbits,6
                                           ;	.line	868; "MC32P7351.c"	LED_FULL_CHARGE_OFF();
0004dd   c790     bset    0x190, 0x3       	BSET	_IOP0bits,3
                                           ;	.line	869; "MC32P7351.c"	LED_WORKING_OFF(); // 关闭电源指示灯
0004de   c994     bset    0x194, 0x4       	BSET	_IOP1bits,4
                                           ;	.line	870; "MC32P7351.c"	HEATING_OFF();     // 关闭加热
0004df   d594     bclr    0x194, 0x2       	BCLR	_IOP1bits,2
                                           ;	.line	871; "MC32P7351.c"	FLAG_IS_DEVICE_OPEN = 0;
0004e0   d091     bclr    0x91, 0          	BCLR	_flag1,0
                                           ;	.line	872; "MC32P7351.c"	FLAG_IS_HEATING = 0;
0004e1   d291     bclr    0x91, 0x1        	BCLR	_flag1,1
                                           ;	.line	873; "MC32P7351.c"	mode_flag = MODE_1; // 下一次切换模式时，会变成 MODE_2
0004e2   7688     clrr    0x88             	CLRR	_mode_flag
                                           ;	.line	875; "MC32P7351.c"	PWM0EC = 0;
0004e3   dd98     bclr    0x198, 0x6       	BCLR	_T0CRbits,6
                                           ;	.line	876; "MC32P7351.c"	PWM1EC = 0;
0004e4   dd9c     bclr    0x19c, 0x6       	BCLR	_T1CRbits,6
                                           ;	.line	878; "MC32P7351.c"	flag_is_low_battery = 0; // 清除该标志位
0004e5   d492     bclr    0x92, 0x2        	BCLR	_flag2,2
                                           ;	.line	879; "MC32P7351.c"	break;
0004e6   a4ea     goto    0x4ea            	GOTO	_00541_DS_
                                           _00533_DS_
                                           ;	.line	904; "MC32P7351.c"	key_event_handle();
0004e7   84eb     call    0x4eb            	CALL	_key_event_handle
                                           ;	.line	789; "MC32P7351.c"	for (i = 0; i < 10; i++)
0004e8   668a     incr    0x8a             	INCR	_i
0004e9   a486     goto    0x486            	GOTO	_00539_DS_
                                           _00541_DS_
                                           ;	.line	906; "MC32P7351.c"	}
0004ea   000c     return                   	RETURN	
                                           ; exit point of _adc_scan_handle
                                           
                                           ;***
                                           ;  pBlock Stats: dbName = C
                                           ;***
                                           ;entry:  _key_event_handle	;Function start
                                           ; 2 exit points
                                           ;has an exit
                                           ;; Starting pCode block
                                           _key_event_handle	;Function start
                                           ; 2 exit points
                                           ;	.line	517; "MC32P7351.c"	if (FLAG_IS_DEVICE_OPEN)
0004eb   e091     jbset   0x91, 0          	JBSET	_flag1,0
0004ec   a544     goto    0x544            	GOTO	_00406_DS_
                                           ;	.line	520; "MC32P7351.c"	if (KEY_EVENT_MODE_HOLD == key_event)
0004ed   5887     movar   0x87             	MOVAR	_key_event
0004ee   3903     xorai   0x3              	XORAI	0x03
0004ef   e587     jbset   0x187, 0x2       	JBSET	PFLAG,2
0004f0   a4fe     goto    0x4fe            	GOTO	_00391_DS_
                                           ;	.line	523; "MC32P7351.c"	LED_WORKING_OFF(); // 关闭电源指示灯
0004f1   c994     bset    0x194, 0x4       	BSET	_IOP1bits,4
                                           ;	.line	524; "MC32P7351.c"	LED_CHARGING_OFF();
0004f2   c990     bset    0x190, 0x4       	BSET	_IOP0bits,4
                                           ;	.line	525; "MC32P7351.c"	HEATING_OFF(); // 关闭加热
0004f3   d594     bclr    0x194, 0x2       	BCLR	_IOP1bits,2
                                           ;	.line	526; "MC32P7351.c"	FLAG_IS_DEVICE_OPEN = 0;
0004f4   d091     bclr    0x91, 0          	BCLR	_flag1,0
                                           ;	.line	527; "MC32P7351.c"	FLAG_IS_HEATING = 0;
0004f5   d291     bclr    0x91, 0x1        	BCLR	_flag1,1
                                           ;	.line	529; "MC32P7351.c"	if (flag_is_low_battery)
0004f6   e492     jbset   0x92, 0x2        	JBSET	_flag2,2
0004f7   a4fa     goto    0x4fa            	GOTO	_00352_DS_
                                           ;	.line	532; "MC32P7351.c"	flag_is_low_battery = 0;
0004f8   d492     bclr    0x92, 0x2        	BCLR	_flag2,2
                                           ;	.line	533; "MC32P7351.c"	LED_CHARGING_OFF(); // 关闭用于报警的LED
0004f9   c990     bset    0x190, 0x4       	BSET	_IOP0bits,4
                                           _00352_DS_
                                           ;	.line	536; "MC32P7351.c"	mode_flag = MODE_1; // 下一次切换模式时，会变成 MODE_2
0004fa   7688     clrr    0x88             	CLRR	_mode_flag
                                           ;	.line	539; "MC32P7351.c"	PWM0EC = 0;
0004fb   dd98     bclr    0x198, 0x6       	BCLR	_T0CRbits,6
                                           ;	.line	540; "MC32P7351.c"	PWM1EC = 0;
0004fc   dd9c     bclr    0x19c, 0x6       	BCLR	_T1CRbits,6
0004fd   a554     goto    0x554            	GOTO	_00407_DS_
                                           _00391_DS_
                                           ;	.line	542; "MC32P7351.c"	else if (KEY_EVENT_MODE_PRESS == key_event)
0004fe   5887     movar   0x87             	MOVAR	_key_event
0004ff   3902     xorai   0x2              	XORAI	0x02
000500   e587     jbset   0x187, 0x2       	JBSET	PFLAG,2
000501   a534     goto    0x534            	GOTO	_00388_DS_
                                           ;	.line	544; "MC32P7351.c"	if (MODE_1 == mode_flag)
000502   3c00     movai   0                	MOVAI	0x00
000503   5c88     orar    0x88             	ORAR	_mode_flag
000504   e587     jbset   0x187, 0x2       	JBSET	PFLAG,2
000505   a50e     goto    0x50e            	GOTO	_00362_DS_
                                           ;	.line	547; "MC32P7351.c"	T0DATA = 160;
000506   3ca0     movai   0xa0             	MOVAI	0xa0
000507   579b     movra   0x19b            	MOVRA	_T0DATA
                                           ;	.line	548; "MC32P7351.c"	T1DATA = 160;
000508   3ca0     movai   0xa0             	MOVAI	0xa0
000509   579f     movra   0x19f            	MOVRA	_T1DATA
                                           ;	.line	550; "MC32P7351.c"	mode_flag = MODE_2;
00050a   3c01     movai   0x1              	MOVAI	0x01
00050b   5688     movra   0x88             	MOVRA	_mode_flag
                                           ;	.line	551; "MC32P7351.c"	flag_ctl_dir = 1;
00050c   c093     bset    0x93, 0          	BSET	_flag3,0
00050d   a52f     goto    0x52f            	GOTO	_00363_DS_
                                           _00362_DS_
                                           ;	.line	553; "MC32P7351.c"	else if (MODE_2 == mode_flag)
00050e   5888     movar   0x88             	MOVAR	_mode_flag
00050f   3901     xorai   0x1              	XORAI	0x01
000510   e587     jbset   0x187, 0x2       	JBSET	PFLAG,2
000511   a51a     goto    0x51a            	GOTO	_00359_DS_
                                           ;	.line	556; "MC32P7351.c"	T0DATA = 255;
000512   3cff     movai   0xff             	MOVAI	0xff
000513   579b     movra   0x19b            	MOVRA	_T0DATA
                                           ;	.line	557; "MC32P7351.c"	T1DATA = 255; // 100%占空比（确保大于TxLOAD的值就可以）
000514   3cff     movai   0xff             	MOVAI	0xff
000515   579f     movra   0x19f            	MOVRA	_T1DATA
                                           ;	.line	559; "MC32P7351.c"	mode_flag = MODE_3;
000516   3c02     movai   0x2              	MOVAI	0x02
000517   5688     movra   0x88             	MOVRA	_mode_flag
                                           ;	.line	560; "MC32P7351.c"	flag_ctl_dir = 1;
000518   c093     bset    0x93, 0          	BSET	_flag3,0
000519   a52f     goto    0x52f            	GOTO	_00363_DS_
                                           _00359_DS_
                                           ;	.line	562; "MC32P7351.c"	else if (MODE_3 == mode_flag)
00051a   5888     movar   0x88             	MOVAR	_mode_flag
00051b   3902     xorai   0x2              	XORAI	0x02
00051c   e587     jbset   0x187, 0x2       	JBSET	PFLAG,2
00051d   a525     goto    0x525            	GOTO	_00356_DS_
                                           ;	.line	565; "MC32P7351.c"	T0DATA = 0;
00051e   779b     clrr    0x19b            	CLRR	_T0DATA
                                           ;	.line	566; "MC32P7351.c"	T1DATA = 0;
00051f   779f     clrr    0x19f            	CLRR	_T1DATA
                                           ;	.line	567; "MC32P7351.c"	PWM0EC = 0;
000520   dd98     bclr    0x198, 0x6       	BCLR	_T0CRbits,6
                                           ;	.line	568; "MC32P7351.c"	PWM1EC = 0;
000521   dd9c     bclr    0x19c, 0x6       	BCLR	_T1CRbits,6
                                           ;	.line	569; "MC32P7351.c"	mode_flag = MODE_4;
000522   3c03     movai   0x3              	MOVAI	0x03
000523   5688     movra   0x88             	MOVRA	_mode_flag
000524   a52f     goto    0x52f            	GOTO	_00363_DS_
                                           _00356_DS_
                                           ;	.line	571; "MC32P7351.c"	else if (MODE_4 == mode_flag)
000525   5888     movar   0x88             	MOVAR	_mode_flag
000526   3903     xorai   0x3              	XORAI	0x03
000527   e587     jbset   0x187, 0x2       	JBSET	PFLAG,2
000528   a52f     goto    0x52f            	GOTO	_00363_DS_
                                           ;	.line	575; "MC32P7351.c"	T0DATA = 150;
000529   3c96     movai   0x96             	MOVAI	0x96
00052a   579b     movra   0x19b            	MOVRA	_T0DATA
                                           ;	.line	576; "MC32P7351.c"	T1DATA = 150;
00052b   3c96     movai   0x96             	MOVAI	0x96
00052c   579f     movra   0x19f            	MOVRA	_T1DATA
                                           ;	.line	577; "MC32P7351.c"	mode_flag = MODE_1;
00052d   7688     clrr    0x88             	CLRR	_mode_flag
                                           ;	.line	578; "MC32P7351.c"	flag_ctl_dir = 1;
00052e   c093     bset    0x93, 0          	BSET	_flag3,0
                                           _00363_DS_
                                           ;	.line	581; "MC32P7351.c"	turn_dir_ms_cnt = 0; // 重置切换方向的计数
00052f   7669     clrr    0x69             	CLRR	_turn_dir_ms_cnt
000530   766a     clrr    0x6a             	CLRR	(_turn_dir_ms_cnt + 1)
000531   766b     clrr    0x6b             	CLRR	(_turn_dir_ms_cnt + 2)
000532   766c     clrr    0x6c             	CLRR	(_turn_dir_ms_cnt + 3)
000533   a554     goto    0x554            	GOTO	_00407_DS_
                                           _00388_DS_
                                           ;	.line	583; "MC32P7351.c"	else if (KEY_EVENT_HEAT_PRESS == key_event)
000534   5887     movar   0x87             	MOVAR	_key_event
000535   3901     xorai   0x1              	XORAI	0x01
000536   e587     jbset   0x187, 0x2       	JBSET	PFLAG,2
000537   a554     goto    0x554            	GOTO	_00407_DS_
                                           ;	.line	585; "MC32P7351.c"	if (0 == FLAG_IS_HEATING)
000538   f291     jbclr   0x91, 0x1        	JBCLR	_flag1,1
000539   a53f     goto    0x53f            	GOTO	_00373_DS_
                                           ;	.line	587; "MC32P7351.c"	HEATING_ON(); // 打开加热
00053a   c594     bset    0x194, 0x2       	BSET	_IOP1bits,2
                                           ;	.line	588; "MC32P7351.c"	LED_WORKING_OFF();
00053b   c994     bset    0x194, 0x4       	BSET	_IOP1bits,4
                                           ;	.line	589; "MC32P7351.c"	LED_CHARGING_ON();
00053c   d990     bclr    0x190, 0x4       	BCLR	_IOP0bits,4
                                           ;	.line	590; "MC32P7351.c"	FLAG_IS_HEATING = 1;
00053d   c291     bset    0x91, 0x1        	BSET	_flag1,1
00053e   a554     goto    0x554            	GOTO	_00407_DS_
                                           _00373_DS_
                                           ;	.line	594; "MC32P7351.c"	HEATING_OFF(); // 关闭加热
00053f   d594     bclr    0x194, 0x2       	BCLR	_IOP1bits,2
                                           ;	.line	595; "MC32P7351.c"	LED_CHARGING_OFF();
000540   c990     bset    0x190, 0x4       	BSET	_IOP0bits,4
                                           ;	.line	596; "MC32P7351.c"	LED_WORKING_ON();
000541   d994     bclr    0x194, 0x4       	BCLR	_IOP1bits,4
                                           ;	.line	597; "MC32P7351.c"	FLAG_IS_HEATING = 0;
000542   d291     bclr    0x91, 0x1        	BCLR	_flag1,1
000543   a554     goto    0x554            	GOTO	_00407_DS_
                                           _00406_DS_
                                           ;	.line	604; "MC32P7351.c"	if (KEY_EVENT_MODE_HOLD == key_event && 0 == FLAG_IS_IN_CHARGING)
000544   5887     movar   0x87             	MOVAR	_key_event
000545   3903     xorai   0x3              	XORAI	0x03
000546   e587     jbset   0x187, 0x2       	JBSET	PFLAG,2
000547   a554     goto    0x554            	GOTO	_00407_DS_
000548   f491     jbclr   0x91, 0x2        	JBCLR	_flag1,2
000549   a554     goto    0x554            	GOTO	_00407_DS_
                                           ;	.line	606; "MC32P7351.c"	LED_FULL_CHARGE_OFF(); // 关闭满电指示灯
00054a   c790     bset    0x190, 0x3       	BSET	_IOP0bits,3
                                           ;	.line	607; "MC32P7351.c"	LED_CHARGING_OFF();    // 关闭充电指示灯
00054b   c990     bset    0x190, 0x4       	BSET	_IOP0bits,4
                                           ;	.line	608; "MC32P7351.c"	LED_WORKING_ON();      // 打开电源指示灯
00054c   d994     bclr    0x194, 0x4       	BCLR	_IOP1bits,4
                                           ;	.line	609; "MC32P7351.c"	FLAG_IS_DEVICE_OPEN = 1;
00054d   c091     bset    0x91, 0          	BSET	_flag1,0
                                           ;	.line	612; "MC32P7351.c"	T0DATA = 150;
00054e   3c96     movai   0x96             	MOVAI	0x96
00054f   579b     movra   0x19b            	MOVRA	_T0DATA
                                           ;	.line	613; "MC32P7351.c"	T1DATA = 150;
000550   3c96     movai   0x96             	MOVAI	0x96
000551   579f     movra   0x19f            	MOVRA	_T1DATA
                                           ;	.line	614; "MC32P7351.c"	mode_flag = MODE_1; // 下一次切换模式时，会变成 MODE_2
000552   7688     clrr    0x88             	CLRR	_mode_flag
                                           ;	.line	619; "MC32P7351.c"	PWM1EC = 1;
000553   cd9c     bset    0x19c, 0x6       	BSET	_T1CRbits,6
                                           _00407_DS_
                                           ;	.line	624; "MC32P7351.c"	key_event = KEY_EVENT_NONE;
000554   7687     clrr    0x87             	CLRR	_key_event
                                           ;	.line	625; "MC32P7351.c"	}
000555   000c     return                   	RETURN	
                                           ; exit point of _key_event_handle
                                           
                                           ;***
                                           ;  pBlock Stats: dbName = C
                                           ;***
                                           ;entry:  _key_scan	;Function start
                                           ; 2 exit points
                                           ;has an exit
                                           ;; Starting pCode block
                                           _key_scan	;Function start
                                           ; 2 exit points
                                           ;	.line	400; "MC32P7351.c"	volatile u8 cur_key_id = KEY_ID_NONE;
000556   7622     clrr    0x22             	CLRR	_key_scan_cur_key_id_65536_33
                                           ;	.line	404; "MC32P7351.c"	if (0 == KEY_MODE_PIN)
000557   f390     jbclr   0x190, 0x1       	JBCLR	_IOP0bits,1
000558   a55c     goto    0x55c            	GOTO	_00211_DS_
                                           ;	.line	406; "MC32P7351.c"	cur_key_id = KEY_ID_MODE;
000559   3c01     movai   0x1              	MOVAI	0x01
00055a   5622     movra   0x22             	MOVRA	_key_scan_cur_key_id_65536_33
00055b   a560     goto    0x560            	GOTO	_00212_DS_
                                           _00211_DS_
                                           ;	.line	408; "MC32P7351.c"	else if (0 == KEY_HEAT_PIN)
00055c   f394     jbclr   0x194, 0x1       	JBCLR	_IOP1bits,1
00055d   a560     goto    0x560            	GOTO	_00212_DS_
                                           ;	.line	410; "MC32P7351.c"	cur_key_id = KEY_ID_HEAT;
00055e   3c02     movai   0x2              	MOVAI	0x02
00055f   5622     movra   0x22             	MOVRA	_key_scan_cur_key_id_65536_33
                                           _00212_DS_
                                           ;	.line	413; "MC32P7351.c"	if (cur_key_id != filter_key_id)
000560   5824     movar   0x24             	MOVAR	_key_scan_filter_key_id_65536_33
000561   4022     xorar   0x22             	XORAR	_key_scan_cur_key_id_65536_33
000562   e587     jbset   0x187, 0x2       	JBSET	PFLAG,2
000563   a565     goto    0x565            	GOTO	_00332_DS_
000564   a569     goto    0x569            	GOTO	_00214_DS_
                                           _00332_DS_
                                           ;	.line	416; "MC32P7351.c"	filter_cnt = 0;
000565   7623     clrr    0x23             	CLRR	_key_scan_filter_cnt_65536_33
                                           ;	.line	417; "MC32P7351.c"	filter_key_id = cur_key_id;
000566   5822     movar   0x22             	MOVAR	_key_scan_cur_key_id_65536_33
000567   5624     movra   0x24             	MOVRA	_key_scan_filter_key_id_65536_33
                                           ;	.line	418; "MC32P7351.c"	return;
000568   a5c0     goto    0x5c0            	GOTO	_00254_DS_
                                           ;;unsigned compare: left < lit(0x3=3), size=1
                                           _00214_DS_
                                           ;	.line	421; "MC32P7351.c"	if (filter_cnt < KEY_FILTER_TIMES)
000569   3c03     movai   0x3              	MOVAI	0x03
00056a   4823     rsubar  0x23             	RSUBAR	_key_scan_filter_cnt_65536_33
00056b   f187     jbclr   0x187, 0         	JBCLR	PFLAG,0
00056c   a56f     goto    0x56f            	GOTO	_00216_DS_
                                           ;;genSkipc:3291: created from rifx:013B5EFC
                                           ;	.line	425; "MC32P7351.c"	filter_cnt++;
00056d   6623     incr    0x23             	INCR	_key_scan_filter_cnt_65536_33
                                           ;	.line	426; "MC32P7351.c"	return;
00056e   a5c0     goto    0x5c0            	GOTO	_00254_DS_
                                           _00216_DS_
                                           ;	.line	431; "MC32P7351.c"	if (last_key_id != cur_key_id)
00056f   5822     movar   0x22             	MOVAR	_key_scan_cur_key_id_65536_33
000570   4027     xorar   0x27             	XORAR	_key_scan_last_key_id_65536_33
000571   e587     jbset   0x187, 0x2       	JBSET	PFLAG,2
000572   a574     goto    0x574            	GOTO	_00334_DS_
000573   a596     goto    0x596            	GOTO	_00252_DS_
                                           _00334_DS_
                                           ;	.line	433; "MC32P7351.c"	if (last_key_id == KEY_ID_NONE)
000574   3c00     movai   0                	MOVAI	0x00
000575   5c27     orar    0x27             	ORAR	_key_scan_last_key_id_65536_33
000576   e587     jbset   0x187, 0x2       	JBSET	PFLAG,2
000577   a57a     goto    0x57a            	GOTO	_00230_DS_
                                           ;	.line	436; "MC32P7351.c"	press_cnt = 0;
000578   7625     clrr    0x25             	CLRR	_key_scan_press_cnt_65536_33
000579   a5be     goto    0x5be            	GOTO	_00253_DS_
                                           _00230_DS_
                                           ;	.line	438; "MC32P7351.c"	else if (cur_key_id == KEY_ID_NONE)
00057a   3c00     movai   0                	MOVAI	0x00
00057b   5c22     orar    0x22             	ORAR	_key_scan_cur_key_id_65536_33
00057c   e587     jbset   0x187, 0x2       	JBSET	PFLAG,2
00057d   a5be     goto    0x5be            	GOTO	_00253_DS_
                                           ;;unsigned compare: left < lit(0x4B=75), size=1
                                           ;	.line	441; "MC32P7351.c"	if (press_cnt < 75)
00057e   3c4b     movai   0x4b             	MOVAI	0x4b
00057f   4825     rsubar  0x25             	RSUBAR	_key_scan_press_cnt_65536_33
000580   f187     jbclr   0x187, 0         	JBCLR	PFLAG,0
000581   a590     goto    0x590            	GOTO	_00225_DS_
                                           ;;genSkipc:3291: created from rifx:013B5EFC
                                           ;	.line	444; "MC32P7351.c"	if (KEY_ID_MODE == last_key_id)
000582   5827     movar   0x27             	MOVAR	_key_scan_last_key_id_65536_33
000583   3901     xorai   0x1              	XORAI	0x01
000584   e587     jbset   0x187, 0x2       	JBSET	PFLAG,2
000585   a589     goto    0x589            	GOTO	_00220_DS_
                                           ;	.line	447; "MC32P7351.c"	key_event = KEY_EVENT_MODE_PRESS;
000586   3c02     movai   0x2              	MOVAI	0x02
000587   5687     movra   0x87             	MOVRA	_key_event
000588   a5be     goto    0x5be            	GOTO	_00253_DS_
                                           _00220_DS_
                                           ;	.line	453; "MC32P7351.c"	else if (KEY_ID_HEAT == last_key_id)
000589   5827     movar   0x27             	MOVAR	_key_scan_last_key_id_65536_33
00058a   3902     xorai   0x2              	XORAI	0x02
00058b   e587     jbset   0x187, 0x2       	JBSET	PFLAG,2
00058c   a5be     goto    0x5be            	GOTO	_00253_DS_
                                           ;	.line	456; "MC32P7351.c"	key_event = KEY_EVENT_HEAT_PRESS;
00058d   3c01     movai   0x1              	MOVAI	0x01
00058e   5687     movra   0x87             	MOVRA	_key_event
00058f   a5be     goto    0x5be            	GOTO	_00253_DS_
                                           _00225_DS_
                                           ;	.line	464; "MC32P7351.c"	if (KEY_ID_MODE == last_key_id)
000590   5827     movar   0x27             	MOVAR	_key_scan_last_key_id_65536_33
000591   3901     xorai   0x1              	XORAI	0x01
000592   e587     jbset   0x187, 0x2       	JBSET	PFLAG,2
000593   a5be     goto    0x5be            	GOTO	_00253_DS_
                                           ;	.line	466; "MC32P7351.c"	flag_is_key_mode_hold = 0;
000594   7626     clrr    0x26             	CLRR	_key_scan_flag_is_key_mode_hold_65536_33
000595   a5be     goto    0x5be            	GOTO	_00253_DS_
                                           _00252_DS_
                                           ;	.line	471; "MC32P7351.c"	else if (cur_key_id != KEY_ID_NONE)
000596   3c00     movai   0                	MOVAI	0x00
000597   5c22     orar    0x22             	ORAR	_key_scan_cur_key_id_65536_33
000598   f587     jbclr   0x187, 0x2       	JBCLR	PFLAG,2
000599   a5be     goto    0x5be            	GOTO	_00253_DS_
                                           ;;unsigned compare: left < lit(0xFF=255), size=1
                                           ;	.line	474; "MC32P7351.c"	if (press_cnt < 255)
00059a   3cff     movai   0xff             	MOVAI	0xff
00059b   4825     rsubar  0x25             	RSUBAR	_key_scan_press_cnt_65536_33
00059c   f187     jbclr   0x187, 0         	JBCLR	PFLAG,0
00059d   a59f     goto    0x59f            	GOTO	_00233_DS_
                                           ;;genSkipc:3291: created from rifx:013B5EFC
                                           ;	.line	475; "MC32P7351.c"	press_cnt++;
00059e   6625     incr    0x25             	INCR	_key_scan_press_cnt_65536_33
                                           _00233_DS_
                                           ;	.line	477; "MC32P7351.c"	if (KEY_ID_MODE == cur_key_id)
00059f   5822     movar   0x22             	MOVAR	_key_scan_cur_key_id_65536_33
0005a0   3901     xorai   0x1              	XORAI	0x01
0005a1   e587     jbset   0x187, 0x2       	JBSET	PFLAG,2
0005a2   a5be     goto    0x5be            	GOTO	_00253_DS_
                                           ;	.line	479; "MC32P7351.c"	if (FLAG_IS_DEVICE_OPEN)
0005a3   e091     jbset   0x91, 0          	JBSET	_flag1,0
0005a4   a5b2     goto    0x5b2            	GOTO	_00245_DS_
                                           ;;unsigned compare: left < lit(0xC8=200), size=1
                                           ;	.line	481; "MC32P7351.c"	if (press_cnt >= 200) // 2000ms
0005a5   3cc8     movai   0xc8             	MOVAI	0xc8
0005a6   4825     rsubar  0x25             	RSUBAR	_key_scan_press_cnt_65536_33
0005a7   e187     jbset   0x187, 0         	JBSET	PFLAG,0
0005a8   a5be     goto    0x5be            	GOTO	_00253_DS_
                                           ;;genSkipc:3291: created from rifx:013B5EFC
                                           ;	.line	483; "MC32P7351.c"	if (flag_is_key_mode_hold)
0005a9   3c00     movai   0                	MOVAI	0x00
0005aa   5c26     orar    0x26             	ORAR	_key_scan_flag_is_key_mode_hold_65536_33
0005ab   e587     jbset   0x187, 0x2       	JBSET	PFLAG,2
0005ac   a5be     goto    0x5be            	GOTO	_00253_DS_
                                           ;	.line	488; "MC32P7351.c"	key_event = KEY_EVENT_MODE_HOLD;
0005ad   3c03     movai   0x3              	MOVAI	0x03
0005ae   5687     movra   0x87             	MOVRA	_key_event
                                           ;	.line	489; "MC32P7351.c"	flag_is_key_mode_hold = 1;
0005af   3c01     movai   0x1              	MOVAI	0x01
0005b0   5626     movra   0x26             	MOVRA	_key_scan_flag_is_key_mode_hold_65536_33
0005b1   a5be     goto    0x5be            	GOTO	_00253_DS_
                                           ;;unsigned compare: left < lit(0x64=100), size=1
                                           _00245_DS_
                                           ;	.line	496; "MC32P7351.c"	if (press_cnt >= 100) // 1000ms加上看门狗唤醒的1024ms
0005b2   3c64     movai   0x64             	MOVAI	0x64
0005b3   4825     rsubar  0x25             	RSUBAR	_key_scan_press_cnt_65536_33
0005b4   e187     jbset   0x187, 0         	JBSET	PFLAG,0
0005b5   a5be     goto    0x5be            	GOTO	_00253_DS_
                                           ;;genSkipc:3291: created from rifx:013B5EFC
                                           ;	.line	498; "MC32P7351.c"	if (flag_is_key_mode_hold)
0005b6   3c00     movai   0                	MOVAI	0x00
0005b7   5c26     orar    0x26             	ORAR	_key_scan_flag_is_key_mode_hold_65536_33
0005b8   e587     jbset   0x187, 0x2       	JBSET	PFLAG,2
0005b9   a5be     goto    0x5be            	GOTO	_00253_DS_
                                           ;	.line	503; "MC32P7351.c"	key_event = KEY_EVENT_MODE_HOLD;
0005ba   3c03     movai   0x3              	MOVAI	0x03
0005bb   5687     movra   0x87             	MOVRA	_key_event
                                           ;	.line	504; "MC32P7351.c"	flag_is_key_mode_hold = 1;
0005bc   3c01     movai   0x1              	MOVAI	0x01
0005bd   5626     movra   0x26             	MOVRA	_key_scan_flag_is_key_mode_hold_65536_33
                                           _00253_DS_
                                           ;	.line	511; "MC32P7351.c"	last_key_id = cur_key_id;
0005be   5822     movar   0x22             	MOVAR	_key_scan_cur_key_id_65536_33
0005bf   5627     movra   0x27             	MOVRA	_key_scan_last_key_id_65536_33
                                           _00254_DS_
                                           ;	.line	512; "MC32P7351.c"	}
0005c0   000c     return                   	RETURN	
                                           ; exit point of _key_scan
                                           
                                           ;***
                                           ;  pBlock Stats: dbName = C
                                           ;***
                                           ;entry:  _Sys_Init	;Function start
                                           ; 2 exit points
                                           ;has an exit
                                           ;functions called:
                                           ;   _CLR_RAM
                                           ;   _adc_config
                                           ;   _delay_ms
                                           ;   _CLR_RAM
                                           ;   _adc_config
                                           ;   _delay_ms
                                           ;1 compiler assigned register :
                                           ;   STK00
                                           ;; Starting pCode block
                                           _Sys_Init	;Function start
                                           ; 2 exit points
                                           ;	.line	278; "MC32P7351.c"	GIE = 0;
0005c1   df88     bclr    0x188, 0x7       	BCLR	_MCRbits,7
                                           ;	.line	279; "MC32P7351.c"	CLR_RAM();
0005c2   86b8     call    0x6b8            	CALL	_CLR_RAM
                                           ;	.line	282; "MC32P7351.c"	IOP0 = 0x00;   // io口数据位
0005c3   7790     clrr    0x190            	CLRR	_IOP0
                                           ;	.line	283; "MC32P7351.c"	OEP0 = 0x3F;   // io口方向 1:out  0:in
0005c4   3c3f     movai   0x3f             	MOVAI	0x3f
0005c5   5791     movra   0x191            	MOVRA	_OEP0
                                           ;	.line	284; "MC32P7351.c"	PUP0 = 0x00;   // io口上拉电阻   1:enable  0:disable
0005c6   7792     clrr    0x192            	CLRR	_PUP0
                                           ;	.line	285; "MC32P7351.c"	PDP0 = 0x00;   // io口下拉电阻   1:enable  0:disable
0005c7   7793     clrr    0x193            	CLRR	_PDP0
                                           ;	.line	286; "MC32P7351.c"	ADIOS0 = 0x00; // io类型选择  1:模拟输入  0:通用io
0005c8   77b6     clrr    0x1b6            	CLRR	_ADIOS0
                                           ;	.line	288; "MC32P7351.c"	IOP1 = 0x00;   // io口数据位
0005c9   7794     clrr    0x194            	CLRR	_IOP1
                                           ;	.line	289; "MC32P7351.c"	OEP1 = 0xFF;   // io口方向 1:out  0:in
0005ca   3cff     movai   0xff             	MOVAI	0xff
0005cb   5795     movra   0x195            	MOVRA	_OEP1
                                           ;	.line	290; "MC32P7351.c"	PUP1 = 0x00;   // io口上拉电阻   1:enable  0:disable
0005cc   7796     clrr    0x196            	CLRR	_PUP1
                                           ;	.line	291; "MC32P7351.c"	PDP1 = 0x00;   // io口下拉电阻   1:enable  0:disable
0005cd   7797     clrr    0x197            	CLRR	_PDP1
                                           ;	.line	292; "MC32P7351.c"	ADIOS1 = 0x00; // io类型选择  1:模拟输入  0:通用io
0005ce   77b7     clrr    0x1b7            	CLRR	_ADIOS1
                                           ;	.line	299; "MC32P7351.c"	PMOD = 0x00;  // P00、P01、P13 io端口值从寄存器读，推挽输出
0005cf   77bc     clrr    0x1bc            	CLRR	_PMOD
                                           ;	.line	300; "MC32P7351.c"	DRVCR = 0x80; // 普通驱动
0005d0   3c80     movai   0x80             	MOVAI	0x80
0005d1   578c     movra   0x18c            	MOVRA	_DRVCR
                                           ;	.line	303; "MC32P7351.c"	LED_WORKING_OFF();
0005d2   c994     bset    0x194, 0x4       	BSET	_IOP1bits,4
                                           ;	.line	304; "MC32P7351.c"	LED_FULL_CHARGE_OFF();
0005d3   c790     bset    0x190, 0x3       	BSET	_IOP0bits,3
                                           ;	.line	305; "MC32P7351.c"	LED_CHARGING_OFF();
0005d4   c990     bset    0x190, 0x4       	BSET	_IOP0bits,4
                                           ;	.line	309; "MC32P7351.c"	T0LOAD = 172 - 1;
0005d5   3cab     movai   0xab             	MOVAI	0xab
0005d6   579a     movra   0x19a            	MOVRA	_T0LOAD
                                           ;	.line	311; "MC32P7351.c"	PWM0EC = 0;  // 禁止PWM输出
0005d7   dd98     bclr    0x198, 0x6       	BCLR	_T0CRbits,6
                                           ;	.line	312; "MC32P7351.c"	T0CR = 0x81; // 使能定时器，时钟源为FCPU，2分频
0005d8   3c81     movai   0x81             	MOVAI	0x81
0005d9   5798     movra   0x198            	MOVRA	_T0CR
                                           ;	.line	319; "MC32P7351.c"	T1LOAD = 172 - 1;
0005da   3cab     movai   0xab             	MOVAI	0xab
0005db   579e     movra   0x19e            	MOVRA	_T1LOAD
                                           ;	.line	321; "MC32P7351.c"	PWM1EC = 0;  // 禁止PWM1输出
0005dc   dd9c     bclr    0x19c, 0x6       	BCLR	_T1CRbits,6
                                           ;	.line	322; "MC32P7351.c"	T1CR = 0x81; // 使能定时器，时钟源为FCPU，2分频
0005dd   3c81     movai   0x81             	MOVAI	0x81
0005de   579c     movra   0x19c            	MOVRA	_T1CR
                                           ;	.line	327; "MC32P7351.c"	T2CKS0 = 1;
0005df   c7a0     bset    0x1a0, 0x3       	BSET	_T2CRbits,3
                                           ;	.line	328; "MC32P7351.c"	T2CKS1 = 0;
0005e0   d9a0     bclr    0x1a0, 0x4       	BCLR	_T2CRbits,4
                                           ;	.line	333; "MC32P7351.c"	TMRCKS0 = 0;
0005e1   d7ad     bclr    0x1ad, 0x3       	BCLR	_PWMCR1bits,3
                                           ;	.line	334; "MC32P7351.c"	TMRCKS1 = 0;
0005e2   d9ad     bclr    0x1ad, 0x4       	BCLR	_PWMCR1bits,4
                                           ;	.line	339; "MC32P7351.c"	T2LOAD = 209; //
0005e3   3cd1     movai   0xd1             	MOVAI	0xd1
0005e4   57a2     movra   0x1a2            	MOVRA	_T2LOAD
                                           ;	.line	341; "MC32P7351.c"	T2DATA = 0;
0005e5   77a3     clrr    0x1a3            	CLRR	_T2DATA
                                           ;	.line	342; "MC32P7351.c"	PWM2EC = 0; // 禁止PWM输出
0005e6   dda0     bclr    0x1a0, 0x6       	BCLR	_T2CRbits,6
                                           ;	.line	344; "MC32P7351.c"	T2EN = 1;
0005e7   cfa0     bset    0x1a0, 0x7       	BSET	_T2CRbits,7
                                           ;	.line	353; "MC32P7351.c"	T3LOAD = 25 - 1; //
0005e8   3c18     movai   0x18             	MOVAI	0x18
0005e9   57a6     movra   0x1a6            	MOVRA	_T3LOAD
                                           ;	.line	354; "MC32P7351.c"	T3CR = 0x85;     // 使能定时器，时钟源选择FCPU，32分频
0005ea   3c85     movai   0x85             	MOVAI	0x85
0005eb   57a4     movra   0x1a4            	MOVRA	_T3CR
                                           ;	.line	355; "MC32P7351.c"	T3IE = 1;
0005ec   cf8a     bset    0x18a, 0x7       	BSET	_INTEbits,7
                                           ;	.line	361; "MC32P7351.c"	P11PU = 1; // 上拉
0005ed   c396     bset    0x196, 0x1       	BSET	_PUP1bits,1
                                           ;	.line	362; "MC32P7351.c"	P11OE = 0; // 输入模式
0005ee   d395     bclr    0x195, 0x1       	BCLR	_OEP1bits,1
                                           ;	.line	365; "MC32P7351.c"	P01PU = 1; // 上拉
0005ef   c392     bset    0x192, 0x1       	BSET	_PUP0bits,1
                                           ;	.line	366; "MC32P7351.c"	P01OE = 0; // 输入模式
0005f0   d391     bclr    0x191, 0x1       	BCLR	_OEP0bits,1
                                           ;	.line	368; "MC32P7351.c"	adc_config();
0005f1   86ac     call    0x6ac            	CALL	_adc_config
                                           ;	.line	370; "MC32P7351.c"	GIE = 1;
0005f2   cf88     bset    0x188, 0x7       	BSET	_MCRbits,7
                                           ;	.line	372; "MC32P7351.c"	delay_ms(1); // 等待系统稳定
0005f3   3c01     movai   0x1              	MOVAI	0x01
0005f4   5606     movra   0x6              	MOVRA	STK00
0005f5   3c00     movai   0                	MOVAI	0x00
0005f6   86c4     call    0x6c4            	CALL	_delay_ms
                                           ;	.line	373; "MC32P7351.c"	}
0005f7   000c     return                   	RETURN	
                                           ; exit point of _Sys_Init
                                           
                                           ;***
                                           ;  pBlock Stats: dbName = C
                                           ;***
                                           ;entry:  _adc_get_val	;Function start
                                           ; 2 exit points
                                           ;has an exit
                                           ;16 compiler assigned registers:
                                           ;   r0x104E
                                           ;   r0x104F
                                           ;   r0x1050
                                           ;   r0x1051
                                           ;   r0x1052
                                           ;   r0x1053
                                           ;   r0x1054
                                           ;   r0x1055
                                           ;   r0x1056
                                           ;   r0x1057
                                           ;   r0x1058
                                           ;   r0x1059
                                           ;   r0x105A
                                           ;   r0x105B
                                           ;   r0x105C
                                           ;   STK00
                                           ;; Starting pCode block
                                           _adc_get_val	;Function start
                                           ; 2 exit points
                                           ;	.line	184; "MC32P7351.c"	u32 g_tmpbuff = 0;
0005f8   7608     clrr    0x8              	CLRR	r0x104E
0005f9   7607     clrr    0x7              	CLRR	r0x104F
0005fa   7609     clrr    0x9              	CLRR	r0x1050
0005fb   760a     clrr    0xa              	CLRR	r0x1051
                                           ;	.line	185; "MC32P7351.c"	u16 g_adcmax = 0;
0005fc   760b     clrr    0xb              	CLRR	r0x1052
0005fd   760c     clrr    0xc              	CLRR	r0x1053
                                           ;	.line	186; "MC32P7351.c"	u16 g_adcmin = 0xFFFF;
0005fe   3cff     movai   0xff             	MOVAI	0xff
0005ff   560d     movra   0xd              	MOVRA	r0x1054
000600   560e     movra   0xe              	MOVRA	r0x1055
                                           ;	.line	189; "MC32P7351.c"	for (i = 0; i < 20; i++)
000601   760f     clrr    0xf              	CLRR	r0x1056
                                           _00158_DS_
                                           ;	.line	191; "MC32P7351.c"	ADEOC = 0; // 清除ADC转换完成标志位，启动AD转换
000602   d3b0     bclr    0x1b0, 0x1       	BCLR	_ADCR0bits,1
                                           _00147_DS_
                                           ;	.line	192; "MC32P7351.c"	while (!ADEOC)
000603   e3b0     jbset   0x1b0, 0x1       	JBSET	_ADCR0bits,1
000604   a603     goto    0x603            	GOTO	_00147_DS_
                                           ;	.line	194; "MC32P7351.c"	g_temp_value = ADRH; // 取出转换后的值
000605   59b4     movar   0x1b4            	MOVAR	_ADRH
000606   5610     movra   0x10             	MOVRA	r0x1057
000607   7611     clrr    0x11             	CLRR	r0x1058
                                           ;	.line	195; "MC32P7351.c"	g_temp_value = g_temp_value << 4 | (ADRL & 0x0F);
000608   4411     swapar  0x11             	SWAPAR	r0x1058
000609   3ef0     andai   0xf0             	ANDAI	0xf0
00060a   5613     movra   0x13             	MOVRA	r0x1059
00060b   4410     swapar  0x10             	SWAPAR	r0x1057
00060c   5612     movra   0x12             	MOVRA	r0x105A
00060d   3e0f     andai   0xf              	ANDAI	0x0f
00060e   5e13     orra    0x13             	ORRA	r0x1059
00060f   4212     xorra   0x12             	XORRA	r0x105A
000610   59b5     movar   0x1b5            	MOVAR	_ADRL
000611   5610     movra   0x10             	MOVRA	r0x1057
000612   7611     clrr    0x11             	CLRR	r0x1058
000613   3c0f     movai   0xf              	MOVAI	0x0f
000614   7a10     andra   0x10             	ANDRA	r0x1057
000615   7611     clrr    0x11             	CLRR	r0x1058
                                           ;;114	MOVAR	r0x1057
000616   3c00     movai   0                	MOVAI	0x00
000617   5615     movra   0x15             	MOVRA	r0x105C
                                           ;;113	MOVAR	r0x105B
000618   5810     movar   0x10             	MOVAR	r0x1057
000619   5614     movra   0x14             	MOVRA	r0x105B
00061a   5c12     orar    0x12             	ORAR	r0x105A
00061b   5610     movra   0x10             	MOVRA	r0x1057
00061c   5815     movar   0x15             	MOVAR	r0x105C
00061d   5c13     orar    0x13             	ORAR	r0x1059
00061e   5611     movra   0x11             	MOVRA	r0x1058
                                           ;;unsigned compare: left < lit(0x2=2), size=1
                                           ;	.line	196; "MC32P7351.c"	if (i < 2)
00061f   3c02     movai   0x2              	MOVAI	0x02
000620   480f     rsubar  0xf              	RSUBAR	r0x1056
000621   e187     jbset   0x187, 0         	JBSET	PFLAG,0
000622   a64d     goto    0x64d            	GOTO	_00156_DS_
                                           ;;genSkipc:3291: created from rifx:013B5EFC
                                           ;	.line	198; "MC32P7351.c"	if (g_temp_value > g_adcmax)
000623   5811     movar   0x11             	MOVAR	r0x1058
000624   480c     rsubar  0xc              	RSUBAR	r0x1053
000625   e587     jbset   0x187, 0x2       	JBSET	PFLAG,2
000626   a629     goto    0x629            	GOTO	_00198_DS_
000627   5810     movar   0x10             	MOVAR	r0x1057
000628   480b     rsubar  0xb              	RSUBAR	r0x1052
                                           _00198_DS_
000629   f187     jbclr   0x187, 0         	JBCLR	PFLAG,0
00062a   a62f     goto    0x62f            	GOTO	_00153_DS_
                                           ;;genSkipc:3291: created from rifx:013B5EFC
                                           ;	.line	199; "MC32P7351.c"	g_adcmax = g_temp_value; // 最大
00062b   5810     movar   0x10             	MOVAR	r0x1057
00062c   560b     movra   0xb              	MOVRA	r0x1052
00062d   5811     movar   0x11             	MOVAR	r0x1058
00062e   560c     movra   0xc              	MOVRA	r0x1053
                                           _00153_DS_
                                           ;	.line	200; "MC32P7351.c"	if (g_temp_value < g_adcmin)
00062f   580e     movar   0xe              	MOVAR	r0x1055
000630   4811     rsubar  0x11             	RSUBAR	r0x1058
000631   e587     jbset   0x187, 0x2       	JBSET	PFLAG,2
000632   a635     goto    0x635            	GOTO	_00199_DS_
000633   580d     movar   0xd              	MOVAR	r0x1054
000634   4810     rsubar  0x10             	RSUBAR	r0x1057
                                           _00199_DS_
000635   f187     jbclr   0x187, 0         	JBCLR	PFLAG,0
000636   a63b     goto    0x63b            	GOTO	_00155_DS_
                                           ;;genSkipc:3291: created from rifx:013B5EFC
                                           ;	.line	201; "MC32P7351.c"	g_adcmin = g_temp_value; // 最小
000637   5810     movar   0x10             	MOVAR	r0x1057
000638   560d     movra   0xd              	MOVRA	r0x1054
000639   5811     movar   0x11             	MOVAR	r0x1058
00063a   560e     movra   0xe              	MOVRA	r0x1055
                                           ;;110	MOVAR	r0x1057
                                           ;;112	MOVAR	r0x1058
                                           _00155_DS_
                                           ;	.line	202; "MC32P7351.c"	g_tmpbuff += g_temp_value;
00063b   7614     clrr    0x14             	CLRR	r0x105B
00063c   7615     clrr    0x15             	CLRR	r0x105C
                                           ;;109	MOVAR	r0x105A
00063d   5810     movar   0x10             	MOVAR	r0x1057
00063e   5612     movra   0x12             	MOVRA	r0x105A
00063f   7e08     addra   0x8              	ADDRA	r0x104E
                                           ;;111	MOVAR	r0x1059
000640   5811     movar   0x11             	MOVAR	r0x1058
000641   5613     movra   0x13             	MOVRA	r0x1059
000642   f187     jbclr   0x187, 0         	JBCLR	PFLAG,0
000643   6013     jzar    0x13             	JZAR	r0x1059
000644   7e07     addra   0x7              	ADDRA	r0x104F
000645   5814     movar   0x14             	MOVAR	r0x105B
000646   f187     jbclr   0x187, 0         	JBCLR	PFLAG,0
000647   6014     jzar    0x14             	JZAR	r0x105B
000648   7e09     addra   0x9              	ADDRA	r0x1050
000649   5815     movar   0x15             	MOVAR	r0x105C
00064a   f187     jbclr   0x187, 0         	JBCLR	PFLAG,0
00064b   6015     jzar    0x15             	JZAR	r0x105C
00064c   7e0a     addra   0xa              	ADDRA	r0x1051
                                           _00156_DS_
                                           ;	.line	189; "MC32P7351.c"	for (i = 0; i < 20; i++)
00064d   660f     incr    0xf              	INCR	r0x1056
                                           ;;unsigned compare: left < lit(0x14=20), size=1
00064e   3c14     movai   0x14             	MOVAI	0x14
00064f   480f     rsubar  0xf              	RSUBAR	r0x1056
000650   e187     jbset   0x187, 0         	JBSET	PFLAG,0
000651   a602     goto    0x602            	GOTO	_00158_DS_
                                           ;;genSkipc:3291: created from rifx:013B5EFC
                                           ;;108	MOVAR	r0x1052
                                           ;	.line	204; "MC32P7351.c"	g_tmpbuff -= g_adcmax;           // 去掉一个最大
000652   580c     movar   0xc              	MOVAR	r0x1053
000653   5610     movra   0x10             	MOVRA	r0x1057
000654   7611     clrr    0x11             	CLRR	r0x1058
000655   7612     clrr    0x12             	CLRR	r0x105A
                                           ;;107	MOVAR	r0x1056
000656   580b     movar   0xb              	MOVAR	r0x1052
000657   560f     movra   0xf              	MOVRA	r0x1056
000658   4808     rsubar  0x8              	RSUBAR	r0x104E
000659   560b     movra   0xb              	MOVRA	r0x1052
00065a   5807     movar   0x7              	MOVAR	r0x104F
00065b   560c     movra   0xc              	MOVRA	r0x1053
00065c   5810     movar   0x10             	MOVAR	r0x1057
00065d   e187     jbset   0x187, 0         	JBSET	PFLAG,0
00065e   6010     jzar    0x10             	JZAR	r0x1057
00065f   4a0c     rsubra  0xc              	RSUBRA	r0x1053
000660   5809     movar   0x9              	MOVAR	r0x1050
000661   5613     movra   0x13             	MOVRA	r0x1059
000662   5811     movar   0x11             	MOVAR	r0x1058
000663   e187     jbset   0x187, 0         	JBSET	PFLAG,0
000664   6011     jzar    0x11             	JZAR	r0x1058
000665   4a13     rsubra  0x13             	RSUBRA	r0x1059
000666   5812     movar   0x12             	MOVAR	r0x105A
000667   e187     jbset   0x187, 0         	JBSET	PFLAG,0
000668   6412     incar   0x12             	INCAR	r0x105A
000669   480a     rsubar  0xa              	RSUBAR	r0x1051
00066a   5614     movra   0x14             	MOVRA	r0x105B
                                           ;;100	MOVAR	r0x1054
                                           ;;102	MOVAR	r0x1055
                                           ;	.line	205; "MC32P7351.c"	g_tmpbuff -= g_adcmin;           // 去掉一个最小
00066b   7609     clrr    0x9              	CLRR	r0x1050
00066c   760a     clrr    0xa              	CLRR	r0x1051
                                           ;;99	MOVAR	r0x104E
00066d   580d     movar   0xd              	MOVAR	r0x1054
00066e   5608     movra   0x8              	MOVRA	r0x104E
00066f   4a0b     rsubra  0xb              	RSUBRA	r0x1052
                                           ;;101	MOVAR	r0x104F
000670   580e     movar   0xe              	MOVAR	r0x1055
000671   5607     movra   0x7              	MOVRA	r0x104F
000672   e187     jbset   0x187, 0         	JBSET	PFLAG,0
000673   6007     jzar    0x7              	JZAR	r0x104F
000674   4a0c     rsubra  0xc              	RSUBRA	r0x1053
000675   5809     movar   0x9              	MOVAR	r0x1050
000676   e187     jbset   0x187, 0         	JBSET	PFLAG,0
000677   6009     jzar    0x9              	JZAR	r0x1050
000678   4a13     rsubra  0x13             	RSUBRA	r0x1059
000679   580a     movar   0xa              	MOVAR	r0x1051
00067a   e187     jbset   0x187, 0         	JBSET	PFLAG,0
00067b   600a     jzar    0xa              	JZAR	r0x1051
00067c   4a14     rsubra  0x14             	RSUBRA	r0x105B
                                           ;	.line	206; "MC32P7351.c"	g_temp_value = (g_tmpbuff >> 4); // 除以16，取平均值
00067d   440b     swapar  0xb              	SWAPAR	r0x1052
00067e   3e0f     andai   0xf              	ANDAI	0x0f
00067f   5608     movra   0x8              	MOVRA	r0x104E
000680   440c     swapar  0xc              	SWAPAR	r0x1053
000681   5607     movra   0x7              	MOVRA	r0x104F
000682   3ef0     andai   0xf0             	ANDAI	0xf0
000683   5e08     orra    0x8              	ORRA	r0x104E
000684   4207     xorra   0x7              	XORRA	r0x104F
000685   4413     swapar  0x13             	SWAPAR	r0x1059
000686   5609     movra   0x9              	MOVRA	r0x1050
000687   3ef0     andai   0xf0             	ANDAI	0xf0
000688   5e07     orra    0x7              	ORRA	r0x104F
000689   4209     xorra   0x9              	XORRA	r0x1050
00068a   4414     swapar  0x14             	SWAPAR	r0x105B
00068b   560a     movra   0xa              	MOVRA	r0x1051
00068c   3ef0     andai   0xf0             	ANDAI	0xf0
00068d   5e09     orra    0x9              	ORRA	r0x1050
00068e   420a     xorra   0xa              	XORRA	r0x1051
                                           ;;104	MOVAR	r0x104E
                                           ;;106	MOVAR	r0x104F
                                           ;;103	MOVAR	r0x1052
                                           ;	.line	230; "MC32P7351.c"	return g_temp_value;
00068f   5808     movar   0x8              	MOVAR	r0x104E
000690   560b     movra   0xb              	MOVRA	r0x1052
000691   5606     movra   0x6              	MOVRA	STK00
                                           ;;105	MOVAR	r0x1053
000692   5807     movar   0x7              	MOVAR	r0x104F
000693   560c     movra   0xc              	MOVRA	r0x1053
                                           ;	.line	231; "MC32P7351.c"	}
000694   000c     return                   	RETURN	
                                           ; exit point of _adc_get_val
                                           
                                           ;***
                                           ;  pBlock Stats: dbName = C
                                           ;***
                                           ;entry:  _adc_sel_pin	;Function start
                                           ; 2 exit points
                                           ;has an exit
                                           ;functions called:
                                           ;   _delay_ms
                                           ;   _delay_ms
                                           ;2 compiler assigned registers:
                                           ;   r0x1054
                                           ;   STK00
                                           ;; Starting pCode block
                                           _adc_sel_pin	;Function start
                                           ; 2 exit points
                                           ;	.line	145; "MC32P7351.c"	void adc_sel_pin(u8 adc_pin)
000695   560d     movra   0xd              	MOVRA	r0x1054
                                           ;	.line	148; "MC32P7351.c"	switch (adc_pin)
000696   580d     movar   0xd              	MOVAR	r0x1054
000697   3901     xorai   0x1              	XORAI	0x01
000698   e587     jbset   0x187, 0x2       	JBSET	PFLAG,2
000699   a69b     goto    0x69b            	GOTO	_00141_DS_
00069a   a6a1     goto    0x6a1            	GOTO	_00127_DS_
                                           _00141_DS_
00069b   580d     movar   0xd              	MOVAR	r0x1054
00069c   3902     xorai   0x2              	XORAI	0x02
00069d   e587     jbset   0x187, 0x2       	JBSET	PFLAG,2
00069e   a6a0     goto    0x6a0            	GOTO	_00142_DS_
00069f   a6a4     goto    0x6a4            	GOTO	_00128_DS_
                                           _00142_DS_
0006a0   a6a7     goto    0x6a7            	GOTO	_00130_DS_
                                           _00127_DS_
                                           ;	.line	151; "MC32P7351.c"	ADCR0 &= ~(0x0F << 4); // 清空寄存器的通道选择位
0006a1   3c0f     movai   0xf              	MOVAI	0x0f
0006a2   7bb0     andra   0x1b0            	ANDRA	_ADCR0
                                           ;	.line	159; "MC32P7351.c"	break;
0006a3   a6a7     goto    0x6a7            	GOTO	_00130_DS_
                                           _00128_DS_
                                           ;	.line	162; "MC32P7351.c"	ADCR0 &= ~(0x0F << 4); // 清空寄存器的通道选择位
0006a4   3c0f     movai   0xf              	MOVAI	0x0f
0006a5   7bb0     andra   0x1b0            	ANDRA	_ADCR0
                                           ;	.line	163; "MC32P7351.c"	ADCR0 |= 0x01 << 4;    // AIN1--P02;
0006a6   c9b0     bset    0x1b0, 0x4       	BSET	_ADCR0,4
                                           _00130_DS_
                                           ;	.line	176; "MC32P7351.c"	delay_ms(1); // 切换adc检测的引脚后，要延时一段时间，等待adc稳定，防止意料之外的检测结果
0006a7   3c01     movai   0x1              	MOVAI	0x01
0006a8   5606     movra   0x6              	MOVRA	STK00
0006a9   3c00     movai   0                	MOVAI	0x00
0006aa   86c4     call    0x6c4            	CALL	_delay_ms
                                           ;	.line	177; "MC32P7351.c"	}
0006ab   000c     return                   	RETURN	
                                           ; exit point of _adc_sel_pin
                                           
                                           ;***
                                           ;  pBlock Stats: dbName = C
                                           ;***
                                           ;entry:  _adc_config	;Function start
                                           ; 2 exit points
                                           ;has an exit
                                           ;; Starting pCode block
                                           _adc_config	;Function start
                                           ; 2 exit points
                                           ;	.line	62; "MC32P7351.c"	P00OE = 0; // 输入模式
0006ac   d191     bclr    0x191, 0         	BCLR	_OEP0bits,0
                                           ;	.line	63; "MC32P7351.c"	P00DC = 1; // 模拟模式
0006ad   c1b6     bset    0x1b6, 0         	BSET	_ADIOS0bits,0
                                           ;	.line	66; "MC32P7351.c"	P02OE = 0; // 输入模式
0006ae   d591     bclr    0x191, 0x2       	BCLR	_OEP0bits,2
                                           ;	.line	67; "MC32P7351.c"	P02DC = 1; // 模拟模式
0006af   c3b6     bset    0x1b6, 0x1       	BSET	_ADIOS0bits,1
                                           ;	.line	69; "MC32P7351.c"	ADCR0 = 0x0A; // 12位精度、不启用ADC转换，不使能ADC
0006b0   3c0a     movai   0xa              	MOVAI	0x0a
0006b1   57b0     movra   0x1b0            	MOVRA	_ADCR0
                                           ;	.line	70; "MC32P7351.c"	ADCR1 = 0xE1; // 125K采样（最高精度）  内部3V参考电压
0006b2   3ce1     movai   0xe1             	MOVAI	0xe1
0006b3   57b1     movra   0x1b1            	MOVRA	_ADCR1
                                           ;	.line	71; "MC32P7351.c"	ADCR2 = 0xFF; // ADC采样时间为15个ADC时钟
0006b4   3cff     movai   0xff             	MOVAI	0xff
0006b5   57b2     movra   0x1b2            	MOVRA	_ADCR2
                                           ;	.line	72; "MC32P7351.c"	ADEN = 1;     // 使能ADC
0006b6   c1b0     bset    0x1b0, 0         	BSET	_ADCR0bits,0
                                           ;	.line	73; "MC32P7351.c"	}
0006b7   000c     return                   	RETURN	
                                           ; exit point of _adc_config
                                           
                                           ;***
                                           ;  pBlock Stats: dbName = C
                                           ;***
                                           ;entry:  _CLR_RAM	;Function start
                                           ; 2 exit points
                                           ;has an exit
                                           ;; Starting pCode block
                                           _CLR_RAM	;Function start
                                           ; 2 exit points
                                           ;	.line	22; "MC32P7351.c"	for (FSR0 = 0; FSR0 < 0xff; FSR0++)
0006b8   7784     clrr    0x184            	CLRR	_FSR0
                                           ;;unsigned compare: left < lit(0xFF=255), size=1
                                           _00118_DS_
0006b9   3cff     movai   0xff             	MOVAI	0xff
0006ba   4984     rsubar  0x184            	RSUBAR	_FSR0
0006bb   f187     jbclr   0x187, 0         	JBCLR	PFLAG,0
0006bc   a6c0     goto    0x6c0            	GOTO	_00116_DS_
                                           ;;genSkipc:3291: created from rifx:013B5EFC
                                           ;	.line	24; "MC32P7351.c"	INDF0 = 0x00;
0006bd   7780     clrr    0x180            	CLRR	_INDF0
                                           ;	.line	22; "MC32P7351.c"	for (FSR0 = 0; FSR0 < 0xff; FSR0++)
0006be   6784     incr    0x184            	INCR	_FSR0
0006bf   a6b9     goto    0x6b9            	GOTO	_00118_DS_
                                           _00116_DS_
                                           ;	.line	26; "MC32P7351.c"	FSR0 = 0xFF;
0006c0   3cff     movai   0xff             	MOVAI	0xff
0006c1   5784     movra   0x184            	MOVRA	_FSR0
                                           ;	.line	27; "MC32P7351.c"	INDF0 = 0x00;
0006c2   7780     clrr    0x180            	CLRR	_INDF0
                                           ;	.line	28; "MC32P7351.c"	}
0006c3   000c     return                   	RETURN	
                                           ; exit point of _CLR_RAM
                                           
                                           ;***
                                           ;  pBlock Stats: dbName = C
                                           ;***
                                           ;entry:  _delay_ms	;Function start
                                           ; 2 exit points
                                           ;has an exit
                                           ;7 compiler assigned registers:
                                           ;   r0x104E
                                           ;   STK00
                                           ;   r0x104F
                                           ;   r0x1050
                                           ;   r0x1051
                                           ;   r0x1052
                                           ;   r0x1053
                                           ;; Starting pCode block
                                           _delay_ms	;Function start
                                           ; 2 exit points
                                           ;	.line	368; "user.h"	void delay_ms(u16 xms)
0006c4   5608     movra   0x8              	MOVRA	r0x104E
0006c5   5806     movar   0x6              	MOVAR	STK00
0006c6   5607     movra   0x7              	MOVRA	r0x104F
                                           _00108_DS_
                                           ;	.line	370; "user.h"	while (xms)
0006c7   5807     movar   0x7              	MOVAR	r0x104F
0006c8   5c08     orar    0x8              	ORAR	r0x104E
0006c9   f587     jbclr   0x187, 0x2       	JBCLR	PFLAG,2
0006ca   a6e3     goto    0x6e3            	GOTO	_00111_DS_
                                           ;	.line	373; "user.h"	while (i--)
0006cb   3c3c     movai   0x3c             	MOVAI	0x3c
0006cc   5609     movra   0x9              	MOVRA	r0x1050
0006cd   3c02     movai   0x2              	MOVAI	0x02
0006ce   560a     movra   0xa              	MOVRA	r0x1051
                                           _00105_DS_
0006cf   5809     movar   0x9              	MOVAR	r0x1050
0006d0   560b     movra   0xb              	MOVRA	r0x1052
0006d1   580a     movar   0xa              	MOVAR	r0x1051
0006d2   560c     movra   0xc              	MOVRA	r0x1053
0006d3   3cff     movai   0xff             	MOVAI	0xff
0006d4   7e09     addra   0x9              	ADDRA	r0x1050
0006d5   e187     jbset   0x187, 0         	JBSET	PFLAG,0
0006d6   6e0a     decr    0xa              	DECR	r0x1051
0006d7   580b     movar   0xb              	MOVAR	r0x1052
0006d8   5c0c     orar    0xc              	ORAR	r0x1053
0006d9   f587     jbclr   0x187, 0x2       	JBCLR	PFLAG,2
0006da   a6dd     goto    0x6dd            	GOTO	_00107_DS_
                                           ;	.line	375; "user.h"	Nop();
0006db   0000     nop                      	nop	
0006dc   a6cf     goto    0x6cf            	GOTO	_00105_DS_
                                           _00107_DS_
                                           ;	.line	377; "user.h"	xms--; // 把 --操作放在while()判断条件外面，更节省空间
0006dd   3cff     movai   0xff             	MOVAI	0xff
0006de   7e07     addra   0x7              	ADDRA	r0x104F
0006df   e187     jbset   0x187, 0         	JBSET	PFLAG,0
0006e0   6e08     decr    0x8              	DECR	r0x104E
                                           ;	.line	381; "user.h"	__endasm;
                                           	;
0006e1   000e     clrwdt                   	clrwdt;
                                           	
0006e2   a6c7     goto    0x6c7            	GOTO	_00108_DS_
                                           _00111_DS_
                                           ;	.line	383; "user.h"	}
0006e3   000c     return                   	RETURN	
                                           ; exit point of _delay_ms
                                           
                                           
                                           ;	code size estimation:
                                           ;	 1741+    0 =  1741 instructions ( 3482 byte)
                                           
                                           	end
                                           ;--------------------------------------------------------
                                           ; File Created by SN-SDCC : SinoMCU ANSI-C Compiler
                                           ; Version 2.0.0 (Dec 11 2019) (MINGW32)
                                           ; This file was generated Sat Jul 19 16:50:24 2025
                                           ;--------------------------------------------------------
                                           ; MC32 port for the RISC core
                                           ;--------------------------------------------------------
                                           ;	.file	"MC32P7351.c"
                                           	list	p=7351
                                           	radix dec
                                           	include "7351.inc"
                                           ;--------------------------------------------------------
                                           ; external declarations
                                           ;--------------------------------------------------------
                                           	extern	__mullong
                                           	extern	__divulong
                                           	extern	_INDF0bits
                                           	extern	_INDF1bits
                                           	extern	_INDF2bits
                                           	extern	_HIBYTEbits
                                           	extern	_FSR0bits
                                           	extern	_FSR1bits
                                           	extern	_PCLbits
                                           	extern	_PFLAGbits
                                           	extern	_MCRbits
                                           	extern	_INDF3bits
                                           	extern	_INTEbits
                                           	extern	_INTFbits
                                           	extern	_DRVCRbits
                                           	extern	_PFRCCRbits
                                           	extern	_P1KBCRbits
                                           	extern	_PFRCCALbits
                                           	extern	_IOP0bits
                                           	extern	_OEP0bits
                                           	extern	_PUP0bits
                                           	extern	_PDP0bits
                                           	extern	_IOP1bits
                                           	extern	_OEP1bits
                                           	extern	_PUP1bits
                                           	extern	_PDP1bits
                                           	extern	_T0CRbits
                                           	extern	_T0CNTbits
                                           	extern	_T0LOADbits
                                           	extern	_T0DATAbits
                                           	extern	_T1CRbits
                                           	extern	_T1CNTbits
                                           	extern	_T1LOADbits
                                           	extern	_T1DATAbits
                                           	extern	_T2CRbits
                                           	extern	_T2CNTbits
                                           	extern	_T2LOADbits
                                           	extern	_T2DATAbits
                                           	extern	_T3CRbits
                                           	extern	_T3CNTbits
                                           	extern	_T3LOADbits
                                           	extern	_PWM0DRbits
                                           	extern	_PWM1DRbits
                                           	extern	_PWM2DRbits
                                           	extern	_PWMCR0bits
                                           	extern	_PWMCR1bits
                                           	extern	_OSCMRbits
                                           	extern	_LVDCRbits
                                           	extern	_ADCR0bits
                                           	extern	_ADCR1bits
                                           	extern	_ADCR2bits
                                           	extern	_OSADJCRbits
                                           	extern	_ADRHbits
                                           	extern	_ADRLbits
                                           	extern	_ADIOS0bits
                                           	extern	_ADIOS1bits
                                           	extern	_PMODbits
                                           	extern	_PWMCR3bits
                                           	extern	_PWMCR2bits
                                           	extern	_PFRCAUXbits
                                           	extern	_HIRCCALbits
                                           	extern	_INDF0
                                           	extern	_INDF1
                                           	extern	_INDF2
                                           	extern	_HIBYTE
                                           	extern	_FSR0
                                           	extern	_FSR1
                                           	extern	_PCL
                                           	extern	_PFLAG
                                           	extern	_MCR
                                           	extern	_INDF3
                                           	extern	_INTE
                                           	extern	_INTF
                                           	extern	_DRVCR
                                           	extern	_PFRCCR
                                           	extern	_P1KBCR
                                           	extern	_PFRCCAL
                                           	extern	_IOP0
                                           	extern	_OEP0
                                           	extern	_PUP0
                                           	extern	_PDP0
                                           	extern	_IOP1
                                           	extern	_OEP1
                                           	extern	_PUP1
                                           	extern	_PDP1
                                           	extern	_T0CR
                                           	extern	_T0CNT
                                           	extern	_T0LOAD
                                           	extern	_T0DATA
                                           	extern	_T1CR
                                           	extern	_T1CNT
                                           	extern	_T1LOAD
                                           	extern	_T1DATA
                                           	extern	_T2CR
                                           	extern	_T2CNT
                                           	extern	_T2LOAD
                                           	extern	_T2DATA
                                           	extern	_T3CR
                                           	extern	_T3CNT
                                           	extern	_T3LOAD
                                           	extern	_PWM0DR
                                           	extern	_PWM1DR
                                           	extern	_PWM2DR
                                           	extern	_PWMCR0
                                           	extern	_PWMCR1
                                           	extern	_OSCMR
                                           	extern	_LVDCR
                                           	extern	_ADCR0
                                           	extern	_ADCR1
                                           	extern	_ADCR2
                                           	extern	_OSADJCR
                                           	extern	_ADRH
                                           	extern	_ADRL
                                           	extern	_ADIOS0
                                           	extern	_ADIOS1
                                           	extern	_PMOD
                                           	extern	_PWMCR3
                                           	extern	_PWMCR2
                                           	extern	_PFRCAUX
                                           	extern	_HIRCCAL
                                           ;--------------------------------------------------------
                                           ; global declarations
                                           ;--------------------------------------------------------
                                           	global	_delay_ms
                                           	global	_CLR_RAM
                                           	global	_adc_config
                                           	global	_adc_sel_pin
                                           	global	_adc_get_val
                                           	global	_Sys_Init
                                           	global	_key_scan
                                           	global	_key_event_handle
                                           	global	_adc_scan_handle
                                           	global	_turn_dir_scan_handle
                                           	global	_shutdown_scan_handle
                                           	global	_low_power_scan_handle
                                           	global	_main
                                           	global	_int_isr
                                           	global	_key_event
                                           	global	_mode_flag
                                           	global	_key_press_flag
                                           	global	_i
                                           	global	_adc_val
                                           	global	_turn_dir_ms_cnt
                                           	global	_shut_down_ms_cnt
                                           	global	_adc_bat_val
                                           	global	_adc_charging_val
                                           	global	_max_pwm_val
                                           	global	_last_pwm_val
                                           	global	_tmp_val
                                           	global	_tmp_val_l
                                           	global	_tmp_val_cnt
                                           	global	_flag_bat_is_empty
                                           	global	_tmp_bat_val
                                           	global	_over_charging_cnt
                                           	global	_full_charge_cnt
                                           	global	_charge_time_cnt
                                           	global	_abuf
                                           	global	_statusbuf
                                           	global	_flag1
                                           	global	_flag2
                                           	global	_flag3
                                           
                                           	global STK06
                                           	global STK05
                                           	global STK04
                                           	global STK03
                                           	global STK02
                                           	global STK01
                                           	global STK00
                                           
                                           sharebank udata_ovr 0x0000
                                           STK06	res 1
                                           STK05	res 1
                                           STK04	res 1
                                           STK03	res 1
                                           STK02	res 1
                                           STK01	res 1
                                           STK00	res 1
                                           
                                           ;--------------------------------------------------------
                                           ; global definitions
                                           ;--------------------------------------------------------
                                           UD_MC32P7351_0	udata
                                           _key_event	res	1
                                           
                                           UD_MC32P7351_1	udata
                                           _mode_flag	res	1
                                           
                                           UD_MC32P7351_2	udata
                                           _key_press_flag	res	1
                                           
                                           UD_MC32P7351_3	udata
                                           _i	res	1
                                           
                                           UD_MC32P7351_4	udata
                                           _adc_val	res	2
                                           
                                           UD_MC32P7351_5	udata
                                           _turn_dir_ms_cnt	res	4
                                           
                                           UD_MC32P7351_6	udata
                                           _shut_down_ms_cnt	res	4
                                           
                                           UD_MC32P7351_7	udata
                                           _adc_bat_val	res	4
                                           
                                           UD_MC32P7351_8	udata
                                           _adc_charging_val	res	2
                                           
                                           UD_MC32P7351_9	udata
                                           _max_pwm_val	res	4
                                           
                                           UD_MC32P7351_10	udata
                                           _last_pwm_val	res	2
                                           
                                           UD_MC32P7351_11	udata
                                           _tmp_val	res	2
                                           
                                           UD_MC32P7351_12	udata
                                           _tmp_val_l	res	16
                                           
                                           UD_MC32P7351_13	udata
                                           _tmp_val_cnt	res	1
                                           
                                           UD_MC32P7351_14	udata
                                           _flag_bat_is_empty	res	1
                                           
                                           UD_MC32P7351_15	udata
                                           _tmp_bat_val	res	2
                                           
                                           UD_MC32P7351_16	udata
                                           _over_charging_cnt	res	1
                                           
                                           UD_MC32P7351_17	udata
                                           _full_charge_cnt	res	1
                                           
                                           UD_MC32P7351_18	udata
                                           _charge_time_cnt	res	4
                                           
                                           UD_MC32P7351_19	udata
                                           _abuf	res	1
                                           
                                           UD_MC32P7351_20	udata
                                           _statusbuf	res	1
                                           
                                           UD_MC32P7351_21	udata
                                           _flag1	res	1
                                           
                                           UD_MC32P7351_22	udata
                                           _flag2	res	1
                                           
                                           UD_MC32P7351_23	udata
                                           _flag3	res	1
                                           
                                           ;--------------------------------------------------------
                                           ; absolute symbol definitions
                                           ;--------------------------------------------------------
                                           ;--------------------------------------------------------
                                           ; compiler-defined variables
                                           ;--------------------------------------------------------
                                           UDL_MC32P7351_0	udata
                                           r0x104F	res	1
                                           r0x104E	res	1
                                           r0x1050	res	1
                                           r0x1051	res	1
                                           r0x1052	res	1
                                           r0x1053	res	1
                                           r0x1054	res	1
                                           r0x1055	res	1
                                           r0x1056	res	1
                                           r0x1057	res	1
                                           r0x1058	res	1
                                           r0x105A	res	1
                                           r0x1059	res	1
                                           r0x105B	res	1
                                           r0x105C	res	1
                                           r0x105D	res	1
                                           r0x105E	res	1
                                           r0x1060	res	1
                                           r0x105F	res	1
                                           r0x1061	res	1
                                           r0x1062	res	1
                                           r0x1063	res	1
                                           r0x1064	res	1
                                           r0x1065	res	1
                                           r0x1066	res	1
                                           r0x1067	res	1
                                           r0x1068	res	1
                                           _key_scan_cur_key_id_65536_33	res	1
                                           _key_scan_filter_cnt_65536_33	res	1
                                           _key_scan_filter_key_id_65536_33	res	1
                                           _key_scan_press_cnt_65536_33	res	1
                                           _key_scan_flag_is_key_mode_hold_65536_33	res	1
                                           _key_scan_last_key_id_65536_33	res	1
                                           _adc_scan_handle_cnt_65536_98	res	1
                                           _adc_scan_handle_need_charge_cnt_65536_98	res	1
                                           _main_cnt_262144_220	res	1
                                           _int_isr___1ms_cnt_196608_245	res	1
                                           _int_isr_key_scan_cnt_327680_247	res	1
                                           _int_isr_low_bat_cnt_327680_250	res	2
                                           _int_isr_shut_down_bat_cnt_327680_254	res	2
                                           _int_isr_update_current_time_cnt_327680_258	res	2
                                           _led_state	res	1
                                           _pwm_counter	res	1
                                           _breath_counter	res	1
                                           _pwm_duty	res	1
                                           _breath_direction	res	1
                                           ;--------------------------------------------------------
                                           ; initialized data
                                           ;--------------------------------------------------------
                                           
                                           ;@Allocation info for local variables in function 'delay_ms'
                                           ;@delay_ms delay_ms                  Allocated to registers ;size:2
                                           ;@delay_ms INDF0bits                 Allocated to registers ;size:1
                                           ;@delay_ms INDF1bits                 Allocated to registers ;size:1
                                           ;@delay_ms INDF2bits                 Allocated to registers ;size:1
                                           ;@delay_ms HIBYTEbits                Allocated to registers ;size:1
                                           ;@delay_ms FSR0bits                  Allocated to registers ;size:1
                                           ;@delay_ms FSR1bits                  Allocated to registers ;size:1
                                           ;@delay_ms PCLbits                   Allocated to registers ;size:1
                                           ;@delay_ms PFLAGbits                 Allocated to registers ;size:1
                                           ;@delay_ms MCRbits                   Allocated to registers ;size:1
                                           ;@delay_ms INDF3bits                 Allocated to registers ;size:1
                                           ;@delay_ms INTEbits                  Allocated to registers ;size:1
                                           ;@delay_ms INTFbits                  Allocated to registers ;size:1
                                           ;@delay_ms DRVCRbits                 Allocated to registers ;size:1
                                           ;@delay_ms PFRCCRbits                Allocated to registers ;size:1
                                           ;@delay_ms P1KBCRbits                Allocated to registers ;size:1
                                           ;@delay_ms PFRCCALbits               Allocated to registers ;size:1
                                           ;@delay_ms IOP0bits                  Allocated to registers ;size:1
                                           ;@delay_ms OEP0bits                  Allocated to registers ;size:1
                                           ;@delay_ms PUP0bits                  Allocated to registers ;size:1
                                           ;@delay_ms PDP0bits                  Allocated to registers ;size:1
                                           ;@delay_ms IOP1bits                  Allocated to registers ;size:1
                                           ;@delay_ms OEP1bits                  Allocated to registers ;size:1
                                           ;@delay_ms PUP1bits                  Allocated to registers ;size:1
                                           ;@delay_ms PDP1bits                  Allocated to registers ;size:1
                                           ;@delay_ms T0CRbits                  Allocated to registers ;size:1
                                           ;@delay_ms T0CNTbits                 Allocated to registers ;size:1
                                           ;@delay_ms T0LOADbits                Allocated to registers ;size:1
                                           ;@delay_ms T0DATAbits                Allocated to registers ;size:1
                                           ;@delay_ms T1CRbits                  Allocated to registers ;size:1
                                           ;@delay_ms T1CNTbits                 Allocated to registers ;size:1
                                           ;@delay_ms T1LOADbits                Allocated to registers ;size:1
                                           ;@delay_ms T1DATAbits                Allocated to registers ;size:1
                                           ;@delay_ms T2CRbits                  Allocated to registers ;size:1
                                           ;@delay_ms T2CNTbits                 Allocated to registers ;size:1
                                           ;@delay_ms T2LOADbits                Allocated to registers ;size:1
                                           ;@delay_ms T2DATAbits                Allocated to registers ;size:1
                                           ;@delay_ms T3CRbits                  Allocated to registers ;size:1
                                           ;@delay_ms T3CNTbits                 Allocated to registers ;size:1
                                           ;@delay_ms T3LOADbits                Allocated to registers ;size:1
                                           ;@delay_ms PWM0DRbits                Allocated to registers ;size:1
                                           ;@delay_ms PWM1DRbits                Allocated to registers ;size:1
                                           ;@delay_ms PWM2DRbits                Allocated to registers ;size:1
                                           ;@delay_ms PWMCR0bits                Allocated to registers ;size:1
                                           ;@delay_ms PWMCR1bits                Allocated to registers ;size:1
                                           ;@delay_ms OSCMRbits                 Allocated to registers ;size:1
                                           ;@delay_ms LVDCRbits                 Allocated to registers ;size:1
                                           ;@delay_ms ADCR0bits                 Allocated to registers ;size:1
                                           ;@delay_ms ADCR1bits                 Allocated to registers ;size:1
                                           ;@delay_ms ADCR2bits                 Allocated to registers ;size:1
                                           ;@delay_ms OSADJCRbits               Allocated to registers ;size:1
                                           ;@delay_ms ADRHbits                  Allocated to registers ;size:1
                                           ;@delay_ms ADRLbits                  Allocated to registers ;size:1
                                           ;@delay_ms ADIOS0bits                Allocated to registers ;size:1
                                           ;@delay_ms ADIOS1bits                Allocated to registers ;size:1
                                           ;@delay_ms PMODbits                  Allocated to registers ;size:1
                                           ;@delay_ms PWMCR3bits                Allocated to registers ;size:1
                                           ;@delay_ms PWMCR2bits                Allocated to registers ;size:1
                                           ;@delay_ms PFRCAUXbits               Allocated to registers ;size:1
                                           ;@delay_ms HIRCCALbits               Allocated to registers ;size:1
                                           ;@delay_ms key_event                 Allocated to registers ;size:1
                                           ;@delay_ms mode_flag                 Allocated to registers ;size:1
                                           ;@delay_ms key_press_flag            Allocated to registers ;size:1
                                           ;@delay_ms i                         Allocated to registers ;size:1
                                           ;@delay_ms adc_val                   Allocated to registers ;size:2
                                           ;@delay_ms turn_dir_ms_cnt           Allocated to registers ;size:4
                                           ;@delay_ms shut_down_ms_cnt          Allocated to registers ;size:4
                                           ;@delay_ms adc_bat_val               Allocated to registers ;size:4
                                           ;@delay_ms adc_charging_val          Allocated to registers ;size:2
                                           ;@delay_ms max_pwm_val               Allocated to registers ;size:4
                                           ;@delay_ms last_pwm_val              Allocated to registers ;size:2
                                           ;@delay_ms tmp_val                   Allocated to registers ;size:2
                                           ;@delay_ms tmp_val_l                 Allocated to registers ;size:16
                                           ;@delay_ms tmp_val_cnt               Allocated to registers ;size:1
                                           ;@delay_ms flag_bat_is_empty         Allocated to registers ;size:1
                                           ;@delay_ms tmp_bat_val               Allocated to registers ;size:2
                                           ;@delay_ms over_charging_cnt         Allocated to registers ;size:1
                                           ;@delay_ms full_charge_cnt           Allocated to registers ;size:1
                                           ;@delay_ms pwm_duty                  Allocated to registers ;size:1
                                           ;@delay_ms pwm_counter               Allocated to registers ;size:1
                                           ;@delay_ms breath_counter            Allocated to registers ;size:1
                                           ;@delay_ms breath_direction          Allocated to registers ;size:1
                                           ;@delay_ms led_state                 Allocated to registers ;size:1
                                           ;@delay_ms charge_time_cnt           Allocated to registers ;size:4
                                           ;@delay_ms abuf                      Allocated to registers ;size:1
                                           ;@delay_ms statusbuf                 Allocated to registers ;size:1
                                           ;@delay_ms flag1                     Allocated to registers ;size:1
                                           ;@delay_ms flag2                     Allocated to registers ;size:1
                                           ;@delay_ms flag3                     Allocated to registers ;size:1
                                           ;@delay_ms xms                       Allocated to registers ;size:2
                                           ;@delay_ms i                         Allocated to registers r0x1050 r0x1051 ;size:2
                                           ;@delay_ms INDF0                     Allocated to registers ;size:1
                                           ;@delay_ms INDF1                     Allocated to registers ;size:1
                                           ;@delay_ms INDF2                     Allocated to registers ;size:1
                                           ;@delay_ms HIBYTE                    Allocated to registers ;size:1
                                           ;@delay_ms FSR0                      Allocated to registers ;size:1
                                           ;@delay_ms FSR1                      Allocated to registers ;size:1
                                           ;@delay_ms PCL                       Allocated to registers ;size:1
                                           ;@delay_ms PFLAG                     Allocated to registers ;size:1
                                           ;@delay_ms MCR                       Allocated to registers ;size:1
                                           ;@delay_ms INDF3                     Allocated to registers ;size:1
                                           ;@delay_ms INTE                      Allocated to registers ;size:1
                                           ;@delay_ms INTF                      Allocated to registers ;size:1
                                           ;@delay_ms DRVCR                     Allocated to registers ;size:1
                                           ;@delay_ms PFRCCR                    Allocated to registers ;size:1
                                           ;@delay_ms P1KBCR                    Allocated to registers ;size:1
                                           ;@delay_ms PFRCCAL                   Allocated to registers ;size:1
                                           ;@delay_ms IOP0                      Allocated to registers ;size:1
                                           ;@delay_ms OEP0                      Allocated to registers ;size:1
                                           ;@delay_ms PUP0                      Allocated to registers ;size:1
                                           ;@delay_ms PDP0                      Allocated to registers ;size:1
                                           ;@delay_ms IOP1                      Allocated to registers ;size:1
                                           ;@delay_ms OEP1                      Allocated to registers ;size:1
                                           ;@delay_ms PUP1                      Allocated to registers ;size:1
                                           ;@delay_ms PDP1                      Allocated to registers ;size:1
                                           ;@delay_ms T0CR                      Allocated to registers ;size:1
                                           ;@delay_ms T0CNT                     Allocated to registers ;size:1
                                           ;@delay_ms T0LOAD                    Allocated to registers ;size:1
                                           ;@delay_ms T0DATA                    Allocated to registers ;size:1
                                           ;@delay_ms T1CR                      Allocated to registers ;size:1
                                           ;@delay_ms T1CNT                     Allocated to registers ;size:1
                                           ;@delay_ms T1LOAD                    Allocated to registers ;size:1
                                           ;@delay_ms T1DATA                    Allocated to registers ;size:1
                                           ;@delay_ms T2CR                      Allocated to registers ;size:1
                                           ;@delay_ms T2CNT                     Allocated to registers ;size:1
                                           ;@delay_ms T2LOAD                    Allocated to registers ;size:1
                                           ;@delay_ms T2DATA                    Allocated to registers ;size:1
                                           ;@delay_ms T3CR                      Allocated to registers ;size:1
                                           ;@delay_ms T3CNT                     Allocated to registers ;size:1
                                           ;@delay_ms T3LOAD                    Allocated to registers ;size:1
                                           ;@delay_ms PWM0DR                    Allocated to registers ;size:1
                                           ;@delay_ms PWM1DR                    Allocated to registers ;size:1
                                           ;@delay_ms PWM2DR                    Allocated to registers ;size:1
                                           ;@delay_ms PWMCR0                    Allocated to registers ;size:1
                                           ;@delay_ms PWMCR1                    Allocated to registers ;size:1
                                           ;@delay_ms OSCMR                     Allocated to registers ;size:1
                                           ;@delay_ms LVDCR                     Allocated to registers ;size:1
                                           ;@delay_ms ADCR0                     Allocated to registers ;size:1
                                           ;@delay_ms ADCR1                     Allocated to registers ;size:1
                                           ;@delay_ms ADCR2                     Allocated to registers ;size:1
                                           ;@delay_ms OSADJCR                   Allocated to registers ;size:1
                                           ;@delay_ms ADRH                      Allocated to registers ;size:1
                                           ;@delay_ms ADRL                      Allocated to registers ;size:1
                                           ;@delay_ms ADIOS0                    Allocated to registers ;size:1
                                           ;@delay_ms ADIOS1                    Allocated to registers ;size:1
                                           ;@delay_ms PMOD                      Allocated to registers ;size:1
                                           ;@delay_ms PWMCR3                    Allocated to registers ;size:1
                                           ;@delay_ms PWMCR2                    Allocated to registers ;size:1
                                           ;@delay_ms PFRCAUX                   Allocated to registers ;size:1
                                           ;@delay_ms HIRCCAL                   Allocated to registers ;size:1
                                           ;@end Allocation info for local variables in function 'delay_ms';
                                           ;@Allocation info for local variables in function 'CLR_RAM'
                                           ;@end Allocation info for local variables in function 'CLR_RAM';
                                           ;@Allocation info for local variables in function 'adc_config'
                                           ;@end Allocation info for local variables in function 'adc_config';
                                           ;@Allocation info for local variables in function 'adc_sel_pin'
                                           ;@adc_sel_pin adc_pin                   Allocated to registers r0x1054 ;size:1
                                           ;@end Allocation info for local variables in function 'adc_sel_pin';
                                           ;@Allocation info for local variables in function 'adc_get_val'
                                           ;@adc_get_val i                         Allocated to registers r0x1056 ;size:1
                                           ;@adc_get_val g_temp_value              Allocated to registers r0x1057 r0x1058 ;size:2
                                           ;@adc_get_val g_tmpbuff                 Allocated to registers r0x1052 r0x1053 r0x1059 r0x105B ;size:4
                                           ;@adc_get_val g_adcmax                  Allocated to registers r0x1052 r0x1053 ;size:2
                                           ;@adc_get_val g_adcmin                  Allocated to registers r0x1054 r0x1055 ;size:2
                                           ;@end Allocation info for local variables in function 'adc_get_val';
                                           ;@Allocation info for local variables in function 'Sys_Init'
                                           ;@end Allocation info for local variables in function 'Sys_Init';
                                           ;@Allocation info for local variables in function 'key_scan'
                                           ;@key_scan last_key_id               Allocated to registers ;size:1
                                           ;@key_scan press_cnt                 Allocated to registers ;size:1
                                           ;@key_scan filter_cnt                Allocated to registers ;size:1
                                           ;@key_scan filter_key_id             Allocated to registers ;size:1
                                           ;@key_scan cur_key_id                Allocated to registers ;size:1
                                           ;@key_scan flag_is_key_mode_hold     Allocated to registers ;size:1
                                           ;@end Allocation info for local variables in function 'key_scan';
                                           ;@Allocation info for local variables in function 'key_scan'
                                           ;@key_scan last_key_id               Allocated to registers ;size:1
                                           ;@key_scan press_cnt                 Allocated to registers ;size:1
                                           ;@key_scan filter_cnt                Allocated to registers ;size:1
                                           ;@key_scan filter_key_id             Allocated to registers ;size:1
                                           ;@key_scan cur_key_id                Allocated to registers ;size:1
                                           ;@key_scan flag_is_key_mode_hold     Allocated to registers ;size:1
                                           ;@end Allocation info for local variables in function 'key_scan';
                                           ;@Allocation info for local variables in function 'key_event_handle'
                                           ;@end Allocation info for local variables in function 'key_event_handle';
                                           ;@Allocation info for local variables in function 'adc_scan_handle'
                                           ;@adc_scan_handle cnt                       Allocated to registers ;size:1
                                           ;@adc_scan_handle need_charge_cnt           Allocated to registers ;size:1
                                           ;@end Allocation info for local variables in function 'adc_scan_handle';
                                           ;@Allocation info for local variables in function 'turn_dir_scan_handle'
                                           ;@end Allocation info for local variables in function 'turn_dir_scan_handle';
                                           ;@Allocation info for local variables in function 'shutdown_scan_handle'
                                           ;@end Allocation info for local variables in function 'shutdown_scan_handle';
                                           ;@Allocation info for local variables in function 'low_power_scan_handle'
                                           ;@end Allocation info for local variables in function 'low_power_scan_handle';
                                           ;@Allocation info for local variables in function 'main'
                                           ;@main i                         Allocated to registers r0x105D r0x105E ;size:2
                                           ;@main i                         Allocated to registers r0x105D r0x105E ;size:2
                                           ;@main cnt                       Allocated to registers ;size:1
                                           ;@end Allocation info for local variables in function 'main';
                                           ;@Allocation info for local variables in function 'int_isr'
                                           ;@int_isr __1ms_cnt                 Allocated to registers ;size:1
                                           ;@int_isr key_scan_cnt              Allocated to registers ;size:1
                                           ;@int_isr low_bat_cnt               Allocated to registers ;size:2
                                           ;@int_isr shut_down_bat_cnt         Allocated to registers ;size:2
                                           ;@int_isr update_current_time_cnt   Allocated to registers ;size:2
                                           ;@end Allocation info for local variables in function 'int_isr';
                                           
                                           ;--------------------------------------------------------
                                           ; overlayable items in internal ram 
                                           ;--------------------------------------------------------
                                           ;	udata_ovr
                                           ;--------------------------------------------------------
                                           ; reset vector 
                                           ;--------------------------------------------------------
                                           STARTUP	code 0x0000
                                           	goto	_main
                                           ;--------------------------------------------------------
                                           ; interrupt and initialization code
                                           ;--------------------------------------------------------
                                           c_interrupt	code	0x8
                                           __sdcc_interrupt
                                           ;***
                                           ;  pBlock Stats: dbName = I
                                           ;***
                                           ;entry:  _int_isr	;Function start
                                           ; 0 exit points
                                           ;functions called:
                                           ;   _key_scan
                                           ;   _key_scan
                                           ;2 compiler assigned registers:
                                           ;   r0x1067
                                           ;   r0x1068
                                           ;; Starting pCode block
                                           _int_isr	;Function start
                                           ; 0 exit points
                                           ;	.line	1516; "MC32P7351.c"	__endasm;
                                           	;
                                           	movra	_abuf;
                                           	swapar	_PFLAG;
                                           	movra	_statusbuf;
                                           	
                                           ;	.line	1523; "MC32P7351.c"	if (T3IF & T3IE)
                                           	CLRR	r0x1067
                                           	JBCLR	_INTFbits,7
                                           	INCR	r0x1067
                                           	CLRR	r0x1068
                                           	JBCLR	_INTEbits,7
                                           	INCR	r0x1068
                                           	MOVAR	r0x1068
                                           	ANDRA	r0x1067
                                           	MOVAI	0x00
                                           	ORAR	r0x1067
                                           	JBCLR	PFLAG,2
                                           	GOTO	_01082_DS_
                                           ;	.line	1527; "MC32P7351.c"	__1ms_cnt++;
                                           	INCR	_int_isr___1ms_cnt_196608_245
                                           ;;unsigned compare: left < lit(0xA=10), size=1
                                           ;	.line	1528; "MC32P7351.c"	if (__1ms_cnt >= 10)
                                           	MOVAI	0x0a
                                           	RSUBAR	_int_isr___1ms_cnt_196608_245
                                           	JBSET	PFLAG,0
                                           	GOTO	_01058_DS_
                                           ;;genSkipc:3291: created from rifx:013B5EFC
                                           ;	.line	1530; "MC32P7351.c"	__1ms_cnt = 0;
                                           	CLRR	_int_isr___1ms_cnt_196608_245
                                           ;	.line	1534; "MC32P7351.c"	key_scan_cnt++;
                                           	INCR	_int_isr_key_scan_cnt_327680_247
                                           ;;unsigned compare: left < lit(0xA=10), size=1
                                           ;	.line	1535; "MC32P7351.c"	if (key_scan_cnt >= 10)
                                           	MOVAI	0x0a
                                           	RSUBAR	_int_isr_key_scan_cnt_327680_247
                                           	JBSET	PFLAG,0
                                           	GOTO	_01040_DS_
                                           ;;genSkipc:3291: created from rifx:013B5EFC
                                           ;	.line	1537; "MC32P7351.c"	key_scan_cnt = 0;
                                           	CLRR	_int_isr_key_scan_cnt_327680_247
                                           ;	.line	1538; "MC32P7351.c"	key_scan();
                                           	CALL	_key_scan
                                           _01040_DS_
                                           ;	.line	1542; "MC32P7351.c"	if (FLAG_IS_DEVICE_OPEN)
                                           	JBSET	_flag1,0
                                           	GOTO	_01042_DS_
                                           ;	.line	1544; "MC32P7351.c"	turn_dir_ms_cnt++;  // 会在 turn_dir_scan_handle() 内处理并清零
                                           	INCR	_turn_dir_ms_cnt
                                           	JBCLR	PFLAG,2
                                           	INCR	(_turn_dir_ms_cnt + 1)
                                           	JBCLR	PFLAG,2
                                           	INCR	(_turn_dir_ms_cnt + 2)
                                           	JBCLR	PFLAG,2
                                           	INCR	(_turn_dir_ms_cnt + 3)
                                           ;	.line	1545; "MC32P7351.c"	shut_down_ms_cnt++; // 会在 shutdown_scan_handle() 内处理并清零
                                           	INCR	_shut_down_ms_cnt
                                           	JBCLR	PFLAG,2
                                           	INCR	(_shut_down_ms_cnt + 1)
                                           	JBCLR	PFLAG,2
                                           	INCR	(_shut_down_ms_cnt + 2)
                                           	JBCLR	PFLAG,2
                                           	INCR	(_shut_down_ms_cnt + 3)
                                           _01042_DS_
                                           ;	.line	1552; "MC32P7351.c"	if (flag_maybe_low_battery)
                                           	JBSET	_flag3,2
                                           	GOTO	_01046_DS_
                                           ;	.line	1554; "MC32P7351.c"	low_bat_cnt++;
                                           	INCR	_int_isr_low_bat_cnt_327680_250
                                           	JBCLR	PFLAG,2
                                           	INCR	(_int_isr_low_bat_cnt_327680_250 + 1)
                                           ;;unsigned compare: left < lit(0x1388=5000), size=2
                                           ;	.line	1556; "MC32P7351.c"	if (low_bat_cnt >= 5000) // xx ms
                                           	MOVAI	0x13
                                           	RSUBAR	(_int_isr_low_bat_cnt_327680_250 + 1)
                                           	JBSET	PFLAG,2
                                           	GOTO	_01167_DS_
                                           	MOVAI	0x88
                                           	RSUBAR	_int_isr_low_bat_cnt_327680_250
                                           _01167_DS_
                                           	JBSET	PFLAG,0
                                           	GOTO	_01047_DS_
                                           ;;genSkipc:3291: created from rifx:013B5EFC
                                           ;	.line	1558; "MC32P7351.c"	low_bat_cnt = 0;
                                           	CLRR	_int_isr_low_bat_cnt_327680_250
                                           	CLRR	(_int_isr_low_bat_cnt_327680_250 + 1)
                                           ;	.line	1559; "MC32P7351.c"	flag_is_low_battery = 1;
                                           	BSET	_flag2,2
                                           	GOTO	_01047_DS_
                                           _01046_DS_
                                           ;	.line	1564; "MC32P7351.c"	low_bat_cnt = 0;
                                           	CLRR	_int_isr_low_bat_cnt_327680_250
                                           	CLRR	(_int_isr_low_bat_cnt_327680_250 + 1)
                                           _01047_DS_
                                           ;	.line	1583; "MC32P7351.c"	if (flag_tim_scan_maybe_shut_down)
                                           	JBSET	_flag3,3
                                           	GOTO	_01051_DS_
                                           ;	.line	1585; "MC32P7351.c"	shut_down_bat_cnt++;
                                           	INCR	_int_isr_shut_down_bat_cnt_327680_254
                                           	JBCLR	PFLAG,2
                                           	INCR	(_int_isr_shut_down_bat_cnt_327680_254 + 1)
                                           ;;unsigned compare: left < lit(0x3E8=1000), size=2
                                           ;	.line	1586; "MC32P7351.c"	if (shut_down_bat_cnt >= 1000) // xx ms
                                           	MOVAI	0x03
                                           	RSUBAR	(_int_isr_shut_down_bat_cnt_327680_254 + 1)
                                           	JBSET	PFLAG,2
                                           	GOTO	_01168_DS_
                                           	MOVAI	0xe8
                                           	RSUBAR	_int_isr_shut_down_bat_cnt_327680_254
                                           _01168_DS_
                                           	JBSET	PFLAG,0
                                           	GOTO	_01052_DS_
                                           ;;genSkipc:3291: created from rifx:013B5EFC
                                           ;	.line	1588; "MC32P7351.c"	shut_down_bat_cnt = 0;
                                           	CLRR	_int_isr_shut_down_bat_cnt_327680_254
                                           	CLRR	(_int_isr_shut_down_bat_cnt_327680_254 + 1)
                                           ;	.line	1589; "MC32P7351.c"	flag_is_needed_shut_down = 1;
                                           	BSET	_flag3,4
                                           	GOTO	_01052_DS_
                                           _01051_DS_
                                           ;	.line	1594; "MC32P7351.c"	shut_down_bat_cnt = 0;
                                           	CLRR	_int_isr_shut_down_bat_cnt_327680_254
                                           	CLRR	(_int_isr_shut_down_bat_cnt_327680_254 + 1)
                                           ;	.line	1595; "MC32P7351.c"	flag_is_needed_shut_down = 0;
                                           	BCLR	_flag3,4
                                           _01052_DS_
                                           ;	.line	1601; "MC32P7351.c"	if (FLAG_IS_IN_CHARGING)
                                           	JBSET	_flag1,2
                                           	GOTO	_01058_DS_
                                           ;	.line	1603; "MC32P7351.c"	update_current_time_cnt++;
                                           	INCR	_int_isr_update_current_time_cnt_327680_258
                                           	JBCLR	PFLAG,2
                                           	INCR	(_int_isr_update_current_time_cnt_327680_258 + 1)
                                           ;;unsigned compare: left < lit(0x1F4=500), size=2
                                           ;	.line	1604; "MC32P7351.c"	if (update_current_time_cnt >= 500)
                                           	MOVAI	0x01
                                           	RSUBAR	(_int_isr_update_current_time_cnt_327680_258 + 1)
                                           	JBSET	PFLAG,2
                                           	GOTO	_01169_DS_
                                           	MOVAI	0xf4
                                           	RSUBAR	_int_isr_update_current_time_cnt_327680_258
                                           _01169_DS_
                                           	JBSET	PFLAG,0
                                           	GOTO	_01054_DS_
                                           ;;genSkipc:3291: created from rifx:013B5EFC
                                           ;	.line	1606; "MC32P7351.c"	update_current_time_cnt = 0;
                                           	CLRR	_int_isr_update_current_time_cnt_327680_258
                                           	CLRR	(_int_isr_update_current_time_cnt_327680_258 + 1)
                                           ;	.line	1607; "MC32P7351.c"	flag_is_update_current = 1;
                                           	BSET	_flag3,5
                                           _01054_DS_
                                           ;	.line	1610; "MC32P7351.c"	charge_time_cnt++;
                                           	INCR	_charge_time_cnt
                                           	JBCLR	PFLAG,2
                                           	INCR	(_charge_time_cnt + 1)
                                           	JBCLR	PFLAG,2
                                           	INCR	(_charge_time_cnt + 2)
                                           	JBCLR	PFLAG,2
                                           	INCR	(_charge_time_cnt + 3)
                                           _01058_DS_
                                           ;	.line	1622; "MC32P7351.c"	if (FLAG_IS_IN_CHARGING && 0 == FLAG_BAT_IS_FULL && 0 == flag_is_led_breath_disable)
                                           	JBSET	_flag1,2
                                           	GOTO	_01078_DS_
                                           	JBCLR	_flag1,5
                                           	GOTO	_01078_DS_
                                           	JBCLR	_flag3,6
                                           	GOTO	_01078_DS_
                                           ;	.line	1625; "MC32P7351.c"	if (pwm_counter < pwm_duty)
                                           	MOVAR	_pwm_duty
                                           	RSUBAR	_pwm_counter
                                           	JBCLR	PFLAG,0
                                           	GOTO	_01060_DS_
                                           ;;genSkipc:3291: created from rifx:013B5EFC
                                           ;	.line	1627; "MC32P7351.c"	led_state = 1; // LED亮
                                           	MOVAI	0x01
                                           	MOVRA	_led_state
                                           	GOTO	_01061_DS_
                                           _01060_DS_
                                           ;	.line	1631; "MC32P7351.c"	led_state = 0; // LED灭
                                           	CLRR	_led_state
                                           _01061_DS_
                                           ;	.line	1635; "MC32P7351.c"	pwm_counter++;
                                           	INCR	_pwm_counter
                                           ;;unsigned compare: left < lit(0x64=100), size=1
                                           ;	.line	1636; "MC32P7351.c"	if (pwm_counter >= PWM_MAX_LEVEL)
                                           	MOVAI	0x64
                                           	RSUBAR	_pwm_counter
                                           	JBSET	PFLAG,0
                                           	GOTO	_01063_DS_
                                           ;;genSkipc:3291: created from rifx:013B5EFC
                                           ;	.line	1638; "MC32P7351.c"	pwm_counter = 0;
                                           	CLRR	_pwm_counter
                                           _01063_DS_
                                           ;	.line	1642; "MC32P7351.c"	breath_counter++;
                                           	INCR	_breath_counter
                                           ;;unsigned compare: left < lit(0xC8=200), size=1
                                           ;	.line	1643; "MC32P7351.c"	if (breath_counter >= BREATH_PERIOD)
                                           	MOVAI	0xc8
                                           	RSUBAR	_breath_counter
                                           	JBSET	PFLAG,0
                                           	GOTO	_01073_DS_
                                           ;;genSkipc:3291: created from rifx:013B5EFC
                                           ;	.line	1645; "MC32P7351.c"	breath_counter = 0;
                                           	CLRR	_breath_counter
                                           ;	.line	1648; "MC32P7351.c"	if (breath_direction == 0)
                                           	MOVAI	0x00
                                           	ORAR	_breath_direction
                                           	JBSET	PFLAG,2
                                           	GOTO	_01070_DS_
                                           ;	.line	1651; "MC32P7351.c"	pwm_duty++;
                                           	INCR	_pwm_duty
                                           ;;unsigned compare: left < lit(0x64=100), size=1
                                           ;	.line	1652; "MC32P7351.c"	if (pwm_duty >= PWM_MAX_LEVEL)
                                           	MOVAI	0x64
                                           	RSUBAR	_pwm_duty
                                           	JBSET	PFLAG,0
                                           	GOTO	_01073_DS_
                                           ;;genSkipc:3291: created from rifx:013B5EFC
                                           ;	.line	1654; "MC32P7351.c"	pwm_duty = PWM_MAX_LEVEL;
                                           	MOVAI	0x64
                                           	MOVRA	_pwm_duty
                                           ;	.line	1655; "MC32P7351.c"	breath_direction = 1; // 切换到渐暗
                                           	MOVAI	0x01
                                           	MOVRA	_breath_direction
                                           	GOTO	_01073_DS_
                                           _01070_DS_
                                           ;	.line	1661; "MC32P7351.c"	if (pwm_duty > 0)
                                           	MOVAI	0x00
                                           	ORAR	_pwm_duty
                                           	JBCLR	PFLAG,2
                                           	GOTO	_01067_DS_
                                           ;	.line	1663; "MC32P7351.c"	pwm_duty--;
                                           	DECR	_pwm_duty
                                           	GOTO	_01073_DS_
                                           _01067_DS_
                                           ;	.line	1667; "MC32P7351.c"	pwm_duty = 0;
                                           	CLRR	_pwm_duty
                                           ;	.line	1668; "MC32P7351.c"	breath_direction = 0; // 切换到渐亮
                                           	CLRR	_breath_direction
                                           _01073_DS_
                                           ;	.line	1675; "MC32P7351.c"	if (led_state)
                                           	MOVAI	0x00
                                           	ORAR	_led_state
                                           	JBCLR	PFLAG,2
                                           	GOTO	_01075_DS_
                                           ;	.line	1677; "MC32P7351.c"	LED_CHARGING_PIN = LED_ON;
                                           	BCLR	_IOP0bits,4
                                           	GOTO	_01078_DS_
                                           _01075_DS_
                                           ;	.line	1681; "MC32P7351.c"	LED_CHARGING_PIN = LED_OFF;
                                           	BSET	_IOP0bits,4
                                           _01078_DS_
                                           ;	.line	1685; "MC32P7351.c"	T3IF = 0;
                                           	BCLR	_INTFbits,7
                                           _01082_DS_
                                           ;	.line	1693; "MC32P7351.c"	__endasm;
                                           	;
                                           	swapar	_statusbuf;
                                           	movra	_PFLAG;
                                           	swapr	_abuf;
                                           	swapar	_abuf;
                                           	
                                           END_OF_INTERRUPT
                                           ;	.line	1694; "MC32P7351.c"	}
                                           	RETIE	
                                           
                                           ;--------------------------------------------------------
                                           ; code
                                           ;--------------------------------------------------------
                                           code_MC32P7351	code
                                           ;***
                                           ;  pBlock Stats: dbName = M
                                           ;***
                                           ;entry:  _main	;Function start
                                           ; 2 exit points
                                           ;has an exit
                                           ;functions called:
                                           ;   _Sys_Init
                                           ;   _adc_sel_pin
                                           ;   _adc_get_val
                                           ;   _delay_ms
                                           ;   _delay_ms
                                           ;   _key_event_handle
                                           ;   _adc_scan_handle
                                           ;   _turn_dir_scan_handle
                                           ;   _shutdown_scan_handle
                                           ;   __mullong
                                           ;   __divulong
                                           ;   __mullong
                                           ;   __mullong
                                           ;   __divulong
                                           ;   __divulong
                                           ;   _delay_ms
                                           ;   _delay_ms
                                           ;   _key_event_handle
                                           ;   _delay_ms
                                           ;   _key_event_handle
                                           ;   _delay_ms
                                           ;   _low_power_scan_handle
                                           ;   _Sys_Init
                                           ;   _adc_sel_pin
                                           ;   _adc_get_val
                                           ;   _delay_ms
                                           ;   _delay_ms
                                           ;   _key_event_handle
                                           ;   _adc_scan_handle
                                           ;   _turn_dir_scan_handle
                                           ;   _shutdown_scan_handle
                                           ;   __mullong
                                           ;   __divulong
                                           ;   __mullong
                                           ;   __mullong
                                           ;   __divulong
                                           ;   __divulong
                                           ;   _delay_ms
                                           ;   _delay_ms
                                           ;   _key_event_handle
                                           ;   _delay_ms
                                           ;   _key_event_handle
                                           ;   _delay_ms
                                           ;   _low_power_scan_handle
                                           ;17 compiler assigned registers:
                                           ;   STK00
                                           ;   r0x105D
                                           ;   r0x105E
                                           ;   STK06
                                           ;   STK05
                                           ;   STK04
                                           ;   STK03
                                           ;   STK02
                                           ;   STK01
                                           ;   r0x105F
                                           ;   r0x1060
                                           ;   r0x1061
                                           ;   r0x1062
                                           ;   r0x1063
                                           ;   r0x1064
                                           ;   r0x1065
                                           ;   r0x1066
                                           ;; Starting pCode block
                                           _main	;Function start
                                           ; 2 exit points
                                           ;	.line	1079; "MC32P7351.c"	Sys_Init();
                                           	CALL	_Sys_Init
                                           ;	.line	1086; "MC32P7351.c"	PWM2EC = 1; // 打开控制升压电路的pwm
                                           	BSET	_T2CRbits,6
                                           ;	.line	1087; "MC32P7351.c"	T2DATA = 100;
                                           	MOVAI	0x64
                                           	MOVRA	_T2DATA
                                           ;	.line	1088; "MC32P7351.c"	adc_sel_pin(ADC_PIN_P02_AN1); // 切换到检测电池降压后的电压的检测引脚
                                           	MOVAI	0x02
                                           	CALL	_adc_sel_pin
                                           ;	.line	1089; "MC32P7351.c"	for (i = 0; i < 10; i++)      // 每55ms进入一次，循环内每次间隔约4.8ms
                                           	CLRR	_i
                                           ;;unsigned compare: left < lit(0xA=10), size=1
                                           _00882_DS_
                                           	MOVAI	0x0a
                                           	RSUBAR	_i
                                           	JBCLR	PFLAG,0
                                           	GOTO	_00817_DS_
                                           ;;genSkipc:3291: created from rifx:013B5EFC
                                           ;	.line	1091; "MC32P7351.c"	adc_val = adc_get_val();
                                           	CALL	_adc_get_val
                                           	MOVRA	(_adc_val + 1)
                                           	MOVAR	STK00
                                           	MOVRA	_adc_val
                                           ;;unsigned compare: left < lit(0xF52=3922), size=2
                                           ;	.line	1092; "MC32P7351.c"	if (adc_val >= ADCDETECT_BAT_FULL + ADCDETECT_BAT_NULL_EX)
                                           	MOVAI	0x0f
                                           	RSUBAR	(_adc_val + 1)
                                           	JBSET	PFLAG,2
                                           	GOTO	_01018_DS_
                                           	MOVAI	0x52
                                           	RSUBAR	_adc_val
                                           _01018_DS_
                                           	JBSET	PFLAG,0
                                           	GOTO	_00883_DS_
                                           ;;genSkipc:3291: created from rifx:013B5EFC
                                           ;	.line	1094; "MC32P7351.c"	flag_bat_is_empty = 1;
                                           	MOVAI	0x01
                                           	MOVRA	_flag_bat_is_empty
                                           ;	.line	1095; "MC32P7351.c"	FLAG_DURING_CHARGING_BAT_IS_NULL = 1; // 标志位置一，在主循环让绿灯快闪
                                           	BSET	_flag1,7
                                           _00883_DS_
                                           ;	.line	1089; "MC32P7351.c"	for (i = 0; i < 10; i++)      // 每55ms进入一次，循环内每次间隔约4.8ms
                                           	INCR	_i
                                           	GOTO	_00882_DS_
                                           _00817_DS_
                                           ;	.line	1098; "MC32P7351.c"	PWM2EC = 0; // 关闭控制升压电路的pwm
                                           	BCLR	_T2CRbits,6
                                           ;	.line	1099; "MC32P7351.c"	T2DATA = 0;
                                           	CLRR	_T2DATA
                                           _00879_DS_
                                           ;	.line	1108; "MC32P7351.c"	if (flag_bat_is_empty)
                                           	MOVAI	0x00
                                           	ORAR	_flag_bat_is_empty
                                           	JBCLR	PFLAG,2
                                           	GOTO	_00819_DS_
                                           ;	.line	1111; "MC32P7351.c"	LED_CHARGING_PIN = LED_ON;
                                           	BCLR	_IOP0bits,4
                                           ;	.line	1112; "MC32P7351.c"	delay_ms(500);
                                           	MOVAI	0xf4
                                           	MOVRA	STK00
                                           	MOVAI	0x01
                                           	CALL	_delay_ms
                                           ;	.line	1113; "MC32P7351.c"	LED_CHARGING_PIN = LED_OFF;
                                           	BSET	_IOP0bits,4
                                           ;	.line	1114; "MC32P7351.c"	delay_ms(500);
                                           	MOVAI	0xf4
                                           	MOVRA	STK00
                                           	MOVAI	0x01
                                           	CALL	_delay_ms
                                           ;	.line	1115; "MC32P7351.c"	continue;
                                           	GOTO	_00879_DS_
                                           _00819_DS_
                                           ;	.line	1119; "MC32P7351.c"	key_event_handle(); // 按键事件处理函数，扫描在中断服务函数内执行
                                           	CALL	_key_event_handle
                                           ;	.line	1120; "MC32P7351.c"	adc_scan_handle();  // 充电扫描和处理函数(约占用89ms)
                                           	CALL	_adc_scan_handle
                                           ;	.line	1122; "MC32P7351.c"	turn_dir_scan_handle();
                                           	CALL	_turn_dir_scan_handle
                                           ;	.line	1123; "MC32P7351.c"	shutdown_scan_handle(); // 自动关机检测和处理函数
                                           	CALL	_shutdown_scan_handle
                                           ;	.line	1127; "MC32P7351.c"	if (FLAG_IS_IN_CHARGING)
                                           	JBSET	_flag1,2
                                           	GOTO	_00863_DS_
                                           ;	.line	1129; "MC32P7351.c"	last_pwm_val = T2DATA;      // 读出上一次PWM占空比对应的值
                                           	MOVAR	_T2DATA
                                           	MOVRA	_last_pwm_val
                                           	CLRR	(_last_pwm_val + 1)
                                           ;	.line	1130; "MC32P7351.c"	max_pwm_val = (T2LOAD + 1); // 读出PWM占空比设定的、最大的值
                                           	MOVAR	_T2LOAD
                                           	MOVRA	r0x105D
                                           	CLRR	r0x105E
                                           	MOVAI	0x01
                                           	ADDAR	r0x105D
                                           	MOVRA	_max_pwm_val
                                           	CLRR	(_max_pwm_val + 1)
                                           	RLR	(_max_pwm_val + 1)
                                           	MOVAI	0x00
                                           	ADDRA	(_max_pwm_val + 1)
                                           	CLRR	(_max_pwm_val + 2)
                                           	CLRR	(_max_pwm_val + 3)
                                           ;	.line	1156; "MC32P7351.c"	tmp_bat_val = adc_bat_val;
                                           	MOVAR	_adc_bat_val
                                           	MOVRA	_tmp_bat_val
                                           	MOVAR	(_adc_bat_val + 1)
                                           	MOVRA	(_tmp_bat_val + 1)
                                           ;;swapping arguments (AOP_TYPEs 1/3)
                                           ;;unsigned compare: left >= lit(0xB16=2838), size=4
                                           ;	.line	1157; "MC32P7351.c"	if (adc_bat_val <= 2837) // 如果检测电池电压小于 6.5V
                                           	MOVAI	0x00
                                           	RSUBAR	(_adc_bat_val + 3)
                                           	JBSET	PFLAG,2
                                           	GOTO	_01019_DS_
                                           	MOVAI	0x00
                                           	RSUBAR	(_adc_bat_val + 2)
                                           	JBSET	PFLAG,2
                                           	GOTO	_01019_DS_
                                           	MOVAI	0x0b
                                           	RSUBAR	(_adc_bat_val + 1)
                                           	JBSET	PFLAG,2
                                           	GOTO	_01019_DS_
                                           	MOVAI	0x16
                                           	RSUBAR	_adc_bat_val
                                           _01019_DS_
                                           	JBCLR	PFLAG,0
                                           	GOTO	_00830_DS_
                                           ;;genSkipc:3291: created from rifx:013B5EFC
                                           ;	.line	1167; "MC32P7351.c"	tmp_bat_val += 310;
                                           	MOVAI	0x36
                                           	ADDRA	_tmp_bat_val
                                           	JBCLR	PFLAG,0
                                           	INCR	(_tmp_bat_val + 1)
                                           	INCR	(_tmp_bat_val + 1)
                                           	GOTO	_00910_DS_
                                           ;;swapping arguments (AOP_TYPEs 1/3)
                                           ;;unsigned compare: left >= lit(0xBF1=3057), size=4
                                           _00830_DS_
                                           ;	.line	1170; "MC32P7351.c"	else if (adc_bat_val <= 3056) // 如果检测电池电压小于 7.0V
                                           	MOVAI	0x00
                                           	RSUBAR	(_adc_bat_val + 3)
                                           	JBSET	PFLAG,2
                                           	GOTO	_01020_DS_
                                           	MOVAI	0x00
                                           	RSUBAR	(_adc_bat_val + 2)
                                           	JBSET	PFLAG,2
                                           	GOTO	_01020_DS_
                                           	MOVAI	0x0b
                                           	RSUBAR	(_adc_bat_val + 1)
                                           	JBSET	PFLAG,2
                                           	GOTO	_01020_DS_
                                           	MOVAI	0xf1
                                           	RSUBAR	_adc_bat_val
                                           _01020_DS_
                                           	JBCLR	PFLAG,0
                                           	GOTO	_00827_DS_
                                           ;;genSkipc:3291: created from rifx:013B5EFC
                                           ;	.line	1183; "MC32P7351.c"	tmp_bat_val += 290;
                                           	MOVAI	0x22
                                           	ADDRA	_tmp_bat_val
                                           	JBCLR	PFLAG,0
                                           	INCR	(_tmp_bat_val + 1)
                                           	INCR	(_tmp_bat_val + 1)
                                           	GOTO	_00910_DS_
                                           ;;swapping arguments (AOP_TYPEs 1/3)
                                           ;;unsigned compare: left >= lit(0xC75=3189), size=4
                                           _00827_DS_
                                           ;	.line	1186; "MC32P7351.c"	else if (adc_bat_val <= 3188) // 如果检测电池电压小于 7.3V
                                           	MOVAI	0x00
                                           	RSUBAR	(_adc_bat_val + 3)
                                           	JBSET	PFLAG,2
                                           	GOTO	_01021_DS_
                                           	MOVAI	0x00
                                           	RSUBAR	(_adc_bat_val + 2)
                                           	JBSET	PFLAG,2
                                           	GOTO	_01021_DS_
                                           	MOVAI	0x0c
                                           	RSUBAR	(_adc_bat_val + 1)
                                           	JBSET	PFLAG,2
                                           	GOTO	_01021_DS_
                                           	MOVAI	0x75
                                           	RSUBAR	_adc_bat_val
                                           _01021_DS_
                                           	JBCLR	PFLAG,0
                                           	GOTO	_00824_DS_
                                           ;;genSkipc:3291: created from rifx:013B5EFC
                                           ;	.line	1197; "MC32P7351.c"	tmp_bat_val += 250; //
                                           	MOVAI	0xfa
                                           	ADDRA	_tmp_bat_val
                                           	JBCLR	PFLAG,0
                                           	INCR	(_tmp_bat_val + 1)
                                           	GOTO	_00910_DS_
                                           ;;swapping arguments (AOP_TYPEs 1/3)
                                           ;;unsigned compare: left >= lit(0xCFF=3327), size=4
                                           _00824_DS_
                                           ;	.line	1200; "MC32P7351.c"	else if (adc_bat_val <= 3326) // 如果检测电池电压小于 7.62V
                                           	MOVAI	0x00
                                           	RSUBAR	(_adc_bat_val + 3)
                                           	JBSET	PFLAG,2
                                           	GOTO	_01022_DS_
                                           	MOVAI	0x00
                                           	RSUBAR	(_adc_bat_val + 2)
                                           	JBSET	PFLAG,2
                                           	GOTO	_01022_DS_
                                           	MOVAI	0x0c
                                           	RSUBAR	(_adc_bat_val + 1)
                                           	JBSET	PFLAG,2
                                           	GOTO	_01022_DS_
                                           	MOVAI	0xff
                                           	RSUBAR	_adc_bat_val
                                           _01022_DS_
                                           	JBCLR	PFLAG,0
                                           	GOTO	_00821_DS_
                                           ;;genSkipc:3291: created from rifx:013B5EFC
                                           ;	.line	1209; "MC32P7351.c"	tmp_bat_val += 200;
                                           	MOVAI	0xc8
                                           	ADDRA	_tmp_bat_val
                                           	JBCLR	PFLAG,0
                                           	INCR	(_tmp_bat_val + 1)
                                           	GOTO	_00910_DS_
                                           _00821_DS_
                                           ;	.line	1225; "MC32P7351.c"	tmp_bat_val -= ((u32)adc_bat_val * 157 / 1000 - 522);
                                           	MOVAR	_adc_bat_val
                                           	MOVRA	STK06
                                           	MOVAR	(_adc_bat_val + 1)
                                           	MOVRA	STK05
                                           	MOVAR	(_adc_bat_val + 2)
                                           	MOVRA	STK04
                                           	MOVAR	(_adc_bat_val + 3)
                                           	MOVRA	STK03
                                           	MOVAI	0x9d
                                           	MOVRA	STK02
                                           	MOVAI	0x00
                                           	MOVRA	STK01
                                           	MOVAI	0x00
                                           	MOVRA	STK00
                                           	MOVAI	0x00
                                           	CALL	__mullong
                                           	MOVRA	r0x105F
                                           	MOVAR	STK00
                                           	MOVRA	r0x1060
                                           	MOVAR	STK01
                                           	MOVRA	r0x105E
                                           	MOVAR	STK02
                                           	MOVRA	r0x105D
                                           	MOVAI	0xe8
                                           	MOVRA	STK06
                                           	MOVAI	0x03
                                           	MOVRA	STK05
                                           	MOVAI	0x00
                                           	MOVRA	STK04
                                           	MOVAI	0x00
                                           	MOVRA	STK03
                                           	MOVAR	r0x105D
                                           	MOVRA	STK02
                                           	MOVAR	r0x105E
                                           	MOVRA	STK01
                                           	MOVAR	r0x1060
                                           	MOVRA	STK00
                                           	MOVAR	r0x105F
                                           	CALL	__divulong
                                           	MOVRA	r0x105F
                                           	MOVAR	STK00
                                           	MOVRA	r0x1060
                                           	MOVAR	STK01
                                           	MOVRA	r0x1062
                                           	MOVRA	r0x105E
                                           	MOVAR	STK02
                                           	MOVRA	r0x1061
                                           	MOVRA	r0x105D
                                           ;;118	MOVAR	r0x105D
                                           ;;119	MOVAR	r0x105E
                                           	MOVAI	0xf6
                                           	ADDAR	r0x1061
                                           	MOVRA	r0x105D
                                           	MOVAI	0xfd
                                           	MOVRA	r0x105E
                                           	MOVAR	r0x1062
                                           	JBCLR	PFLAG,0
                                           	JZAR	r0x1062
                                           	ADDRA	r0x105E
                                           	MOVAR	r0x105D
                                           	RSUBRA	_tmp_bat_val
                                           	MOVAR	r0x105E
                                           	JBSET	PFLAG,0
                                           	JZAR	r0x105E
                                           	RSUBRA	(_tmp_bat_val + 1)
                                           _00910_DS_
                                           ;	.line	1274; "MC32P7351.c"	for (i = 0; i < 50; i++)
                                           	CLRR	r0x105D
                                           	CLRR	r0x105E
                                           ;;swapping arguments (AOP_TYPEs 1/3)
                                           ;;unsigned compare: left >= lit(0x3=3), size=2
                                           _00884_DS_
                                           ;	.line	1276; "MC32P7351.c"	if (tmp_bat_val > 2)
                                           	MOVAI	0x00
                                           	RSUBAR	(_tmp_bat_val + 1)
                                           	JBSET	PFLAG,2
                                           	GOTO	_01023_DS_
                                           	MOVAI	0x03
                                           	RSUBAR	_tmp_bat_val
                                           _01023_DS_
                                           	JBSET	PFLAG,0
                                           	GOTO	_00885_DS_
                                           ;;genSkipc:3291: created from rifx:013B5EFC
                                           ;	.line	1278; "MC32P7351.c"	tmp_bat_val--;
                                           	MOVAI	0xff
                                           	ADDRA	_tmp_bat_val
                                           	JBSET	PFLAG,0
                                           	DECR	(_tmp_bat_val + 1)
                                           _00885_DS_
                                           ;	.line	1274; "MC32P7351.c"	for (i = 0; i < 50; i++)
                                           	INCR	r0x105D
                                           	JBCLR	PFLAG,2
                                           	INCR	r0x105E
                                           ;;unsigned compare: left < lit(0x32=50), size=2
                                           	MOVAI	0x00
                                           	RSUBAR	r0x105E
                                           	JBSET	PFLAG,2
                                           	GOTO	_01024_DS_
                                           	MOVAI	0x32
                                           	RSUBAR	r0x105D
                                           _01024_DS_
                                           	JBSET	PFLAG,0
                                           	GOTO	_00884_DS_
                                           ;;genSkipc:3291: created from rifx:013B5EFC
                                           ;;unsigned compare: left < lit(0xE27=3623), size=4
                                           ;	.line	1284; "MC32P7351.c"	if (adc_bat_val >= 3623) // 8.30V及以上 , 降低电流
                                           	MOVAI	0x00
                                           	RSUBAR	(_adc_bat_val + 3)
                                           	JBSET	PFLAG,2
                                           	GOTO	_01025_DS_
                                           	MOVAI	0x00
                                           	RSUBAR	(_adc_bat_val + 2)
                                           	JBSET	PFLAG,2
                                           	GOTO	_01025_DS_
                                           	MOVAI	0x0e
                                           	RSUBAR	(_adc_bat_val + 1)
                                           	JBSET	PFLAG,2
                                           	GOTO	_01025_DS_
                                           	MOVAI	0x27
                                           	RSUBAR	_adc_bat_val
                                           _01025_DS_
                                           	JBSET	PFLAG,0
                                           	GOTO	_00839_DS_
                                           ;;genSkipc:3291: created from rifx:013B5EFC
                                           ;	.line	1292; "MC32P7351.c"	for (i = 0; i < 260; i++) //
                                           	CLRR	r0x105D
                                           	CLRR	r0x105E
                                           ;;swapping arguments (AOP_TYPEs 1/3)
                                           ;;unsigned compare: left >= lit(0x3=3), size=2
                                           _00886_DS_
                                           ;	.line	1298; "MC32P7351.c"	if (tmp_bat_val > 2)
                                           	MOVAI	0x00
                                           	RSUBAR	(_tmp_bat_val + 1)
                                           	JBSET	PFLAG,2
                                           	GOTO	_01026_DS_
                                           	MOVAI	0x03
                                           	RSUBAR	_tmp_bat_val
                                           _01026_DS_
                                           	JBSET	PFLAG,0
                                           	GOTO	_00887_DS_
                                           ;;genSkipc:3291: created from rifx:013B5EFC
                                           ;	.line	1300; "MC32P7351.c"	tmp_bat_val--;
                                           	MOVAI	0xff
                                           	ADDRA	_tmp_bat_val
                                           	JBSET	PFLAG,0
                                           	DECR	(_tmp_bat_val + 1)
                                           _00887_DS_
                                           ;	.line	1292; "MC32P7351.c"	for (i = 0; i < 260; i++) //
                                           	INCR	r0x105D
                                           	JBCLR	PFLAG,2
                                           	INCR	r0x105E
                                           ;;unsigned compare: left < lit(0x104=260), size=2
                                           	MOVAI	0x01
                                           	RSUBAR	r0x105E
                                           	JBSET	PFLAG,2
                                           	GOTO	_01027_DS_
                                           	MOVAI	0x04
                                           	RSUBAR	r0x105D
                                           _01027_DS_
                                           	JBSET	PFLAG,0
                                           	GOTO	_00886_DS_
                                           ;;genSkipc:3291: created from rifx:013B5EFC
                                           _00839_DS_
                                           ;	.line	1349; "MC32P7351.c"	tmp_val = max_pwm_val - (adc_charging_val * max_pwm_val * 94 / 147) / tmp_bat_val;
                                           	MOVAR	_adc_charging_val
                                           	MOVRA	r0x105D
                                           	MOVAR	(_adc_charging_val + 1)
                                           	MOVRA	r0x105E
                                           	CLRR	r0x1061
                                           	CLRR	r0x1062
                                           	MOVAR	_max_pwm_val
                                           	MOVRA	STK06
                                           	MOVAR	(_max_pwm_val + 1)
                                           	MOVRA	STK05
                                           	MOVAR	(_max_pwm_val + 2)
                                           	MOVRA	STK04
                                           	MOVAR	(_max_pwm_val + 3)
                                           	MOVRA	STK03
                                           	MOVAR	r0x105D
                                           	MOVRA	STK02
                                           	MOVAR	r0x105E
                                           	MOVRA	STK01
                                           	MOVAI	0x00
                                           	MOVRA	STK00
                                           	MOVAI	0x00
                                           	CALL	__mullong
                                           	MOVRA	r0x1062
                                           	MOVAR	STK00
                                           	MOVRA	r0x1061
                                           	MOVAR	STK01
                                           	MOVRA	r0x105E
                                           	MOVAR	STK02
                                           	MOVRA	r0x105D
                                           	MOVAR	r0x105D
                                           	MOVRA	STK06
                                           	MOVAR	r0x105E
                                           	MOVRA	STK05
                                           	MOVAR	r0x1061
                                           	MOVRA	STK04
                                           	MOVAR	r0x1062
                                           	MOVRA	STK03
                                           	MOVAI	0x5e
                                           	MOVRA	STK02
                                           	MOVAI	0x00
                                           	MOVRA	STK01
                                           	MOVAI	0x00
                                           	MOVRA	STK00
                                           	MOVAI	0x00
                                           	CALL	__mullong
                                           	MOVRA	r0x1062
                                           	MOVAR	STK00
                                           	MOVRA	r0x1061
                                           	MOVAR	STK01
                                           	MOVRA	r0x105E
                                           	MOVAR	STK02
                                           	MOVRA	r0x105D
                                           	MOVAI	0x93
                                           	MOVRA	STK06
                                           	MOVAI	0x00
                                           	MOVRA	STK05
                                           	MOVAI	0x00
                                           	MOVRA	STK04
                                           	MOVAI	0x00
                                           	MOVRA	STK03
                                           	MOVAR	r0x105D
                                           	MOVRA	STK02
                                           	MOVAR	r0x105E
                                           	MOVRA	STK01
                                           	MOVAR	r0x1061
                                           	MOVRA	STK00
                                           	MOVAR	r0x1062
                                           	CALL	__divulong
                                           	MOVRA	r0x1062
                                           	MOVAR	STK00
                                           	MOVRA	r0x1061
                                           	MOVAR	STK01
                                           	MOVRA	r0x105E
                                           	MOVAR	STK02
                                           	MOVRA	r0x105D
                                           	MOVAR	_tmp_bat_val
                                           	MOVRA	r0x1063
                                           	MOVAR	(_tmp_bat_val + 1)
                                           	MOVRA	r0x1064
                                           	CLRR	r0x1065
                                           	CLRR	r0x1066
                                           	MOVAR	r0x1063
                                           	MOVRA	STK06
                                           	MOVAR	r0x1064
                                           	MOVRA	STK05
                                           	MOVAI	0x00
                                           	MOVRA	STK04
                                           	MOVAI	0x00
                                           	MOVRA	STK03
                                           	MOVAR	r0x105D
                                           	MOVRA	STK02
                                           	MOVAR	r0x105E
                                           	MOVRA	STK01
                                           	MOVAR	r0x1061
                                           	MOVRA	STK00
                                           	MOVAR	r0x1062
                                           	CALL	__divulong
                                           	MOVRA	r0x1062
                                           	MOVAR	STK00
                                           	MOVRA	r0x1061
                                           	MOVAR	STK01
                                           	MOVRA	r0x1066
                                           	MOVRA	r0x105E
                                           	MOVAR	STK02
                                           	MOVRA	r0x1065
                                           	MOVRA	r0x105D
                                           	MOVAR	_max_pwm_val
                                           	MOVRA	r0x1063
                                           	MOVAR	(_max_pwm_val + 1)
                                           	MOVRA	r0x1064
                                           ;;115	MOVAR	r0x105D
                                           ;;116	MOVAR	r0x105E
                                           	MOVAR	r0x1065
                                           	RSUBAR	r0x1063
                                           	MOVRA	_tmp_val
                                           	MOVAR	r0x1066
                                           	JBSET	PFLAG,0
                                           	INCAR	r0x1066
                                           	RSUBAR	r0x1064
                                           	MOVRA	(_tmp_val + 1)
                                           ;	.line	1354; "MC32P7351.c"	if (tmp_val >= max_pwm_val)
                                           	MOVAR	_tmp_val
                                           	MOVRA	r0x105D
                                           	MOVAR	(_tmp_val + 1)
                                           	MOVRA	r0x105E
                                           	CLRR	r0x1061
                                           	CLRR	r0x1062
                                           	MOVAR	(_max_pwm_val + 3)
                                           	RSUBAR	r0x1062
                                           	JBSET	PFLAG,2
                                           	GOTO	_01028_DS_
                                           	MOVAR	(_max_pwm_val + 2)
                                           	RSUBAR	r0x1061
                                           	JBSET	PFLAG,2
                                           	GOTO	_01028_DS_
                                           	MOVAR	(_max_pwm_val + 1)
                                           	RSUBAR	r0x105E
                                           	JBSET	PFLAG,2
                                           	GOTO	_01028_DS_
                                           	MOVAR	_max_pwm_val
                                           	RSUBAR	r0x105D
                                           _01028_DS_
                                           	JBSET	PFLAG,0
                                           	GOTO	_00841_DS_
                                           ;;genSkipc:3291: created from rifx:013B5EFC
                                           ;	.line	1357; "MC32P7351.c"	tmp_val = 0;
                                           	CLRR	_tmp_val
                                           	CLRR	(_tmp_val + 1)
                                           _00841_DS_
                                           ;	.line	1361; "MC32P7351.c"	tmp_val_cnt++;
                                           	INCR	_tmp_val_cnt
                                           ;	.line	1362; "MC32P7351.c"	tmp_val_cnt &= 0x07;
                                           	MOVAI	0x07
                                           	ANDRA	_tmp_val_cnt
                                           ;	.line	1363; "MC32P7351.c"	tmp_val_l[tmp_val_cnt] = (tmp_val_l[tmp_val_cnt] + tmp_val) >> 1;
                                           	BCLR	PFLAG,0
                                           	RLAR	_tmp_val_cnt
                                           	MOVRA	r0x105D
                                           	MOVAR	r0x105D
                                           	ADDAI	(_tmp_val_l + 0)
                                           	MOVRA	r0x105D
                                           	MOVAI	high (_tmp_val_l + 0)
                                           	JBCLR	PFLAG,0
                                           	ADDAI	0x01
                                           	MOVRA	r0x105E
                                           	BCLR	PFLAG,0
                                           	RLAR	_tmp_val_cnt
                                           	MOVRA	r0x1061
                                           	MOVAR	r0x1061
                                           	ADDAI	(_tmp_val_l + 0)
                                           	MOVRA	r0x1061
                                           	MOVAI	high (_tmp_val_l + 0)
                                           	JBCLR	PFLAG,0
                                           	ADDAI	0x01
                                           	MOVRA	r0x1062
                                           	MOVAR	r0x1061
                                           	MOVRA	FSR0
                                           	MOVAR	r0x1062
                                           	MOVRA	FSR1
                                           	MOVAR	INDF2
                                           	MOVRA	r0x1063
                                           	INCR	FSR0
                                           	JBCLR	PFLAG,2
                                           	INCR	FSR1
                                           	MOVAR	INDF2
                                           	MOVRA	r0x1062
                                           	MOVRA	r0x1064
                                           	MOVAR	_tmp_val
                                           	ADDAR	r0x1063
                                           	MOVRA	r0x1061
                                           ;;117	MOVAR	r0x1064
                                           	MOVAR	(_tmp_val + 1)
                                           	JBCLR	PFLAG,0
                                           	JZAR	(_tmp_val + 1)
                                           	ADDRA	r0x1062
                                           ;;shiftRight_Left2ResultLit:5339: shCount=1, size=2, sign=0, same=0, offr=0
                                           	BCLR	PFLAG,0
                                           	RRAR	r0x1062
                                           	MOVRA	r0x1064
                                           	RRAR	r0x1061
                                           	MOVRA	r0x1063
                                           	MOVAR	r0x105D
                                           	MOVRA	FSR0
                                           	MOVAR	r0x105E
                                           	MOVRA	FSR1
                                           	MOVAR	r0x1063
                                           	MOVRA	INDF2
                                           	INCR	FSR0
                                           	JBCLR	PFLAG,2
                                           	INCR	FSR1
                                           	MOVAR	r0x1064
                                           	MOVRA	INDF2
                                           ;	.line	1364; "MC32P7351.c"	tmp_val = 0;
                                           	CLRR	_tmp_val
                                           	CLRR	(_tmp_val + 1)
                                           ;	.line	1365; "MC32P7351.c"	for (i = 0; i < 8; i++)
                                           	CLRR	_i
                                           ;;unsigned compare: left < lit(0x8=8), size=1
                                           _00889_DS_
                                           	MOVAI	0x08
                                           	RSUBAR	_i
                                           	JBCLR	PFLAG,0
                                           	GOTO	_00842_DS_
                                           ;;genSkipc:3291: created from rifx:013B5EFC
                                           ;	.line	1367; "MC32P7351.c"	tmp_val += tmp_val_l[i];
                                           	BCLR	PFLAG,0
                                           	RLAR	_i
                                           	MOVRA	r0x105D
                                           	MOVAR	r0x105D
                                           	ADDAI	(_tmp_val_l + 0)
                                           	MOVRA	r0x105D
                                           	MOVAI	high (_tmp_val_l + 0)
                                           	JBCLR	PFLAG,0
                                           	ADDAI	0x01
                                           	MOVRA	r0x105E
                                           	MOVAR	r0x105D
                                           	MOVRA	FSR0
                                           	MOVAR	r0x105E
                                           	MOVRA	FSR1
                                           	MOVAR	INDF2
                                           	MOVRA	r0x1061
                                           	INCR	FSR0
                                           	JBCLR	PFLAG,2
                                           	INCR	FSR1
                                           	MOVAR	INDF2
                                           	MOVRA	r0x1062
                                           	MOVAR	r0x1061
                                           	ADDRA	_tmp_val
                                           	MOVAR	r0x1062
                                           	JBCLR	PFLAG,0
                                           	JZAR	r0x1062
                                           	ADDRA	(_tmp_val + 1)
                                           ;	.line	1365; "MC32P7351.c"	for (i = 0; i < 8; i++)
                                           	INCR	_i
                                           	GOTO	_00889_DS_
                                           ;;shiftRight_Left2ResultLit:5339: shCount=1, size=2, sign=0, same=1, offr=0
                                           _00842_DS_
                                           ;	.line	1369; "MC32P7351.c"	tmp_val >>= 3;
                                           	BCLR	PFLAG,0
                                           	RRR	(_tmp_val + 1)
                                           	RRR	_tmp_val
                                           ;;shiftRight_Left2ResultLit:5339: shCount=1, size=2, sign=0, same=1, offr=0
                                           	BCLR	PFLAG,0
                                           	RRR	(_tmp_val + 1)
                                           	RRR	_tmp_val
                                           ;;shiftRight_Left2ResultLit:5339: shCount=1, size=2, sign=0, same=1, offr=0
                                           	BCLR	PFLAG,0
                                           	RRR	(_tmp_val + 1)
                                           	RRR	_tmp_val
                                           ;	.line	1377; "MC32P7351.c"	cnt++;
                                           	INCR	_main_cnt_262144_220
                                           ;	.line	1379; "MC32P7351.c"	if (tmp_val > last_pwm_val)
                                           	MOVAR	(_tmp_val + 1)
                                           	RSUBAR	(_last_pwm_val + 1)
                                           	JBSET	PFLAG,2
                                           	GOTO	_01030_DS_
                                           	MOVAR	_tmp_val
                                           	RSUBAR	_last_pwm_val
                                           _01030_DS_
                                           	JBCLR	PFLAG,0
                                           	GOTO	_00852_DS_
                                           ;;genSkipc:3291: created from rifx:013B5EFC
                                           ;	.line	1381; "MC32P7351.c"	if ((tmp_val - last_pwm_val) > 2 || cnt >= 10)
                                           	MOVAR	_last_pwm_val
                                           	RSUBAR	_tmp_val
                                           	MOVRA	r0x105D
                                           	MOVAR	(_last_pwm_val + 1)
                                           	JBSET	PFLAG,0
                                           	INCAR	(_last_pwm_val + 1)
                                           	RSUBAR	(_tmp_val + 1)
                                           	MOVRA	r0x105E
                                           ;;swapping arguments (AOP_TYPEs 1/2)
                                           ;;unsigned compare: left >= lit(0x3=3), size=2
                                           	MOVAI	0x00
                                           	RSUBAR	r0x105E
                                           	JBSET	PFLAG,2
                                           	GOTO	_01031_DS_
                                           	MOVAI	0x03
                                           	RSUBAR	r0x105D
                                           _01031_DS_
                                           	JBCLR	PFLAG,0
                                           	GOTO	_00843_DS_
                                           ;;genSkipc:3291: created from rifx:013B5EFC
                                           ;;unsigned compare: left < lit(0xA=10), size=1
                                           	MOVAI	0x0a
                                           	RSUBAR	_main_cnt_262144_220
                                           	JBSET	PFLAG,0
                                           	GOTO	_00853_DS_
                                           ;;genSkipc:3291: created from rifx:013B5EFC
                                           _00843_DS_
                                           ;	.line	1383; "MC32P7351.c"	last_pwm_val++;
                                           	INCR	_last_pwm_val
                                           	JBCLR	PFLAG,2
                                           	INCR	(_last_pwm_val + 1)
                                           ;	.line	1384; "MC32P7351.c"	cnt = 0;
                                           	CLRR	_main_cnt_262144_220
                                           	GOTO	_00853_DS_
                                           _00852_DS_
                                           ;	.line	1387; "MC32P7351.c"	else if (tmp_val < last_pwm_val)
                                           	MOVAR	(_last_pwm_val + 1)
                                           	RSUBAR	(_tmp_val + 1)
                                           	JBSET	PFLAG,2
                                           	GOTO	_01033_DS_
                                           	MOVAR	_last_pwm_val
                                           	RSUBAR	_tmp_val
                                           _01033_DS_
                                           	JBCLR	PFLAG,0
                                           	GOTO	_00853_DS_
                                           ;;genSkipc:3291: created from rifx:013B5EFC
                                           ;	.line	1389; "MC32P7351.c"	if ((last_pwm_val - tmp_val) > 2 || cnt >= 10)
                                           	MOVAR	_tmp_val
                                           	RSUBAR	_last_pwm_val
                                           	MOVRA	r0x105D
                                           	MOVAR	(_tmp_val + 1)
                                           	JBSET	PFLAG,0
                                           	INCAR	(_tmp_val + 1)
                                           	RSUBAR	(_last_pwm_val + 1)
                                           	MOVRA	r0x105E
                                           ;;swapping arguments (AOP_TYPEs 1/2)
                                           ;;unsigned compare: left >= lit(0x3=3), size=2
                                           	MOVAI	0x00
                                           	RSUBAR	r0x105E
                                           	JBSET	PFLAG,2
                                           	GOTO	_01034_DS_
                                           	MOVAI	0x03
                                           	RSUBAR	r0x105D
                                           _01034_DS_
                                           	JBCLR	PFLAG,0
                                           	GOTO	_00846_DS_
                                           ;;genSkipc:3291: created from rifx:013B5EFC
                                           ;;unsigned compare: left < lit(0xA=10), size=1
                                           	MOVAI	0x0a
                                           	RSUBAR	_main_cnt_262144_220
                                           	JBSET	PFLAG,0
                                           	GOTO	_00853_DS_
                                           ;;genSkipc:3291: created from rifx:013B5EFC
                                           _00846_DS_
                                           ;	.line	1391; "MC32P7351.c"	last_pwm_val--;
                                           	MOVAI	0xff
                                           	ADDRA	_last_pwm_val
                                           	JBSET	PFLAG,0
                                           	DECR	(_last_pwm_val + 1)
                                           ;	.line	1392; "MC32P7351.c"	cnt = 0;
                                           	CLRR	_main_cnt_262144_220
                                           _00853_DS_
                                           ;	.line	1453; "MC32P7351.c"	T2DATA = last_pwm_val;
                                           	MOVAR	_last_pwm_val
                                           	MOVRA	_T2DATA
                                           	GOTO	_00864_DS_
                                           _00863_DS_
                                           ;	.line	1458; "MC32P7351.c"	if (FLAG_DURING_CHARGING_BAT_IS_NULL)
                                           	JBSET	_flag1,7
                                           	GOTO	_00864_DS_
                                           ;	.line	1461; "MC32P7351.c"	LED_FULL_CHARGE_ON();
                                           	BCLR	_IOP0bits,3
                                           ;	.line	1462; "MC32P7351.c"	delay_ms(200);
                                           	MOVAI	0xc8
                                           	MOVRA	STK00
                                           	MOVAI	0x00
                                           	CALL	_delay_ms
                                           ;	.line	1463; "MC32P7351.c"	LED_FULL_CHARGE_OFF();
                                           	BSET	_IOP0bits,3
                                           ;	.line	1464; "MC32P7351.c"	delay_ms(200);
                                           	MOVAI	0xc8
                                           	MOVRA	STK00
                                           	MOVAI	0x00
                                           	CALL	_delay_ms
                                           _00864_DS_
                                           ;	.line	1468; "MC32P7351.c"	if (flag_is_low_battery)
                                           	JBSET	_flag2,2
                                           	GOTO	_00877_DS_
                                           ;	.line	1470; "MC32P7351.c"	LED_WORKING_OFF();
                                           	BSET	_IOP1bits,4
                                           ;	.line	1473; "MC32P7351.c"	LED_CHARGING_ON();
                                           	BCLR	_IOP0bits,4
                                           ;	.line	1475; "MC32P7351.c"	for (i = 0; i < 20; i++)
                                           	CLRR	_i
                                           ;;unsigned compare: left < lit(0x14=20), size=1
                                           _00892_DS_
                                           	MOVAI	0x14
                                           	RSUBAR	_i
                                           	JBCLR	PFLAG,0
                                           	GOTO	_00872_DS_
                                           ;;genSkipc:3291: created from rifx:013B5EFC
                                           ;	.line	1478; "MC32P7351.c"	key_event_handle();
                                           	CALL	_key_event_handle
                                           ;	.line	1479; "MC32P7351.c"	delay_ms(10);
                                           	MOVAI	0x0a
                                           	MOVRA	STK00
                                           	MOVAI	0x00
                                           	CALL	_delay_ms
                                           ;	.line	1475; "MC32P7351.c"	for (i = 0; i < 20; i++)
                                           	INCR	_i
                                           	GOTO	_00892_DS_
                                           _00872_DS_
                                           ;	.line	1482; "MC32P7351.c"	LED_CHARGING_OFF();
                                           	BSET	_IOP0bits,4
                                           ;	.line	1484; "MC32P7351.c"	for (i = 0; i < 20; i++)
                                           	CLRR	_i
                                           ;;unsigned compare: left < lit(0x14=20), size=1
                                           _00895_DS_
                                           	MOVAI	0x14
                                           	RSUBAR	_i
                                           	JBCLR	PFLAG,0
                                           	GOTO	_00877_DS_
                                           ;;genSkipc:3291: created from rifx:013B5EFC
                                           ;	.line	1487; "MC32P7351.c"	key_event_handle();
                                           	CALL	_key_event_handle
                                           ;	.line	1488; "MC32P7351.c"	delay_ms(10);
                                           	MOVAI	0x0a
                                           	MOVRA	STK00
                                           	MOVAI	0x00
                                           	CALL	_delay_ms
                                           ;	.line	1484; "MC32P7351.c"	for (i = 0; i < 20; i++)
                                           	INCR	_i
                                           	GOTO	_00895_DS_
                                           _00877_DS_
                                           ;	.line	1492; "MC32P7351.c"	low_power_scan_handle();
                                           	CALL	_low_power_scan_handle
                                           ;	.line	1499; "MC32P7351.c"	__endasm;
                                           	;
                                           	CLRWDT;
                                           	
                                           	GOTO	_00879_DS_
                                           ;	.line	1502; "MC32P7351.c"	}
                                           	RETURN	
                                           ; exit point of _main
                                           
                                           ;***
                                           ;  pBlock Stats: dbName = C
                                           ;***
                                           ;entry:  _low_power_scan_handle	;Function start
                                           ; 2 exit points
                                           ;has an exit
                                           ;functions called:
                                           ;   _CLR_RAM
                                           ;   _adc_config
                                           ;   _adc_sel_pin
                                           ;   _adc_get_val
                                           ;   _Sys_Init
                                           ;   _CLR_RAM
                                           ;   _adc_config
                                           ;   _adc_sel_pin
                                           ;   _adc_get_val
                                           ;   _Sys_Init
                                           ;1 compiler assigned register :
                                           ;   STK00
                                           ;; Starting pCode block
                                           _low_power_scan_handle	;Function start
                                           ; 2 exit points
                                           ;	.line	974; "MC32P7351.c"	if (FLAG_DURING_CHARGING_BAT_IS_NULL || // 只插着充电器且没有电池时，不进入低功耗
                                           	JBCLR	_flag1,7
                                           	GOTO	_00770_DS_
                                           ;	.line	975; "MC32P7351.c"	FLAG_IS_DEVICE_OPEN ||              // 如果设备已经启动，不进入低功耗
                                           	JBCLR	_flag1,0
                                           	GOTO	_00770_DS_
                                           ;	.line	976; "MC32P7351.c"	FLAG_IS_IN_CHARGING ||              // 如果正在充电，不进入低功耗，因为还需要输出PWM来控制充电
                                           	JBCLR	_flag1,2
                                           	GOTO	_00770_DS_
                                           ;	.line	977; "MC32P7351.c"	(0 == P01D))                        // 如果检测到 开关/模式 按键按下，不进入低功耗(交给按键事件处理函数来判断是否要开机)
                                           	JBCLR	_IOP0bits,1
                                           	GOTO	_00775_DS_
                                           _00770_DS_
                                           ;	.line	979; "MC32P7351.c"	return;
                                           	GOTO	_00788_DS_
                                           _00775_DS_
                                           ;	.line	997; "MC32P7351.c"	GIE = 0;  // 禁用所有中断
                                           	BCLR	_MCRbits,7
                                           ;	.line	998; "MC32P7351.c"	T0EN = 0; // 关闭定时器和PWM输出
                                           	BCLR	_T0CRbits,7
                                           ;	.line	999; "MC32P7351.c"	T1EN = 0;
                                           	BCLR	_T1CRbits,7
                                           ;	.line	1000; "MC32P7351.c"	T2EN = 0;
                                           	BCLR	_T2CRbits,7
                                           ;	.line	1001; "MC32P7351.c"	T3EN = 0;
                                           	BCLR	_T3CRbits,7
                                           ;	.line	1003; "MC32P7351.c"	PWM0EC = 0;
                                           	BCLR	_T0CRbits,6
                                           ;	.line	1004; "MC32P7351.c"	PWM1EC = 0;
                                           	BCLR	_T1CRbits,6
                                           ;	.line	1005; "MC32P7351.c"	PWM2EC = 0;
                                           	BCLR	_T2CRbits,6
                                           ;	.line	1006; "MC32P7351.c"	T2DATA = 0;
                                           	CLRR	_T2DATA
                                           ;	.line	1007; "MC32P7351.c"	ADEN = 0; // 不使能ad
                                           	BCLR	_ADCR0bits,0
                                           ;	.line	1014; "MC32P7351.c"	LED_WORKING_OFF();
                                           	BSET	_IOP1bits,4
                                           ;	.line	1015; "MC32P7351.c"	LED_CHARGING_OFF();
                                           	BSET	_IOP0bits,4
                                           ;	.line	1016; "MC32P7351.c"	LED_FULL_CHARGE_OFF();
                                           	BSET	_IOP0bits,3
                                           ;	.line	1019; "MC32P7351.c"	P01PU = 1;
                                           	BSET	_PUP0bits,1
                                           ;	.line	1020; "MC32P7351.c"	P01OE = 0;
                                           	BCLR	_OEP0bits,1
                                           ;	.line	1023; "MC32P7351.c"	P00PD = 1;
                                           	BSET	_PDP0bits,0
                                           ;	.line	1024; "MC32P7351.c"	P00OE = 0;
                                           	BCLR	_OEP0bits,0
                                           ;	.line	1026; "MC32P7351.c"	HFEN = 0; // 关闭高速时钟
                                           	BCLR	_OSCMRbits,0
                                           ;	.line	1027; "MC32P7351.c"	LFEN = 1;
                                           	BSET	_OSCMRbits,1
                                           ;	.line	1030; "MC32P7351.c"	Nop();
                                           	nop	
                                           ;	.line	1031; "MC32P7351.c"	Nop();
                                           	nop	
                                           ;	.line	1032; "MC32P7351.c"	Stop();
                                           	stop	
                                           ;	.line	1033; "MC32P7351.c"	Nop();
                                           	nop	
                                           ;	.line	1034; "MC32P7351.c"	Nop();
                                           	nop	
                                           ;	.line	1036; "MC32P7351.c"	HFEN = 1; // 开启高速时钟
                                           	BSET	_OSCMRbits,0
                                           ;	.line	1038; "MC32P7351.c"	CLR_RAM();
                                           	CALL	_CLR_RAM
                                           ;	.line	1040; "MC32P7351.c"	adc_config();
                                           	CALL	_adc_config
                                           ;	.line	1041; "MC32P7351.c"	adc_sel_pin(ADC_PIN_P00_AN0);
                                           	MOVAI	0x01
                                           	CALL	_adc_sel_pin
                                           ;	.line	1043; "MC32P7351.c"	adc_val = adc_get_val();
                                           	CALL	_adc_get_val
                                           	MOVRA	(_adc_val + 1)
                                           	MOVAR	STK00
                                           	MOVRA	_adc_val
                                           ;;unsigned compare: left < lit(0x800=2048), size=2
                                           ;	.line	1045; "MC32P7351.c"	if (adc_val < ADCDETECT_CHARING_THRESHOLD && P01D)
                                           	MOVAI	0x08
                                           	RSUBAR	(_adc_val + 1)
                                           	JBSET	PFLAG,2
                                           	GOTO	_00810_DS_
                                           	MOVAI	0x00
                                           	RSUBAR	_adc_val
                                           _00810_DS_
                                           	JBCLR	PFLAG,0
                                           	GOTO	_00786_DS_
                                           ;;genSkipc:3291: created from rifx:013B5EFC
                                           	JBCLR	_IOP0bits,1
                                           	GOTO	_00775_DS_
                                           _00786_DS_
                                           ;	.line	1071; "MC32P7351.c"	Sys_Init();
                                           	CALL	_Sys_Init
                                           _00788_DS_
                                           ;	.line	1075; "MC32P7351.c"	}
                                           	RETURN	
                                           ; exit point of _low_power_scan_handle
                                           
                                           ;***
                                           ;  pBlock Stats: dbName = C
                                           ;***
                                           ;entry:  _shutdown_scan_handle	;Function start
                                           ; 2 exit points
                                           ;has an exit
                                           ;; Starting pCode block
                                           _shutdown_scan_handle	;Function start
                                           ; 2 exit points
                                           ;	.line	945; "MC32P7351.c"	if (FLAG_IS_DEVICE_OPEN)
                                           	JBSET	_flag1,0
                                           	GOTO	_00753_DS_
                                           ;;unsigned compare: left < lit(0xDBBA0=900000), size=4
                                           ;	.line	949; "MC32P7351.c"	if (shut_down_ms_cnt >= 900000)
                                           	MOVAI	0x00
                                           	RSUBAR	(_shut_down_ms_cnt + 3)
                                           	JBSET	PFLAG,2
                                           	GOTO	_00765_DS_
                                           	MOVAI	0x0d
                                           	RSUBAR	(_shut_down_ms_cnt + 2)
                                           	JBSET	PFLAG,2
                                           	GOTO	_00765_DS_
                                           	MOVAI	0xbb
                                           	RSUBAR	(_shut_down_ms_cnt + 1)
                                           	JBSET	PFLAG,2
                                           	GOTO	_00765_DS_
                                           	MOVAI	0xa0
                                           	RSUBAR	_shut_down_ms_cnt
                                           _00765_DS_
                                           	JBSET	PFLAG,0
                                           	GOTO	_00755_DS_
                                           ;;genSkipc:3291: created from rifx:013B5EFC
                                           ;	.line	952; "MC32P7351.c"	LED_WORKING_OFF(); // 关闭电源指示灯
                                           	BSET	_IOP1bits,4
                                           ;	.line	953; "MC32P7351.c"	LED_CHARGING_OFF();
                                           	BSET	_IOP0bits,4
                                           ;	.line	954; "MC32P7351.c"	HEATING_OFF(); // 关闭加热
                                           	BCLR	_IOP1bits,2
                                           ;	.line	955; "MC32P7351.c"	FLAG_IS_HEATING = 0;
                                           	BCLR	_flag1,1
                                           ;	.line	956; "MC32P7351.c"	mode_flag = MODE_4; // 下一次切换模式时，会变成 MODE_1
                                           	MOVAI	0x03
                                           	MOVRA	_mode_flag
                                           ;	.line	958; "MC32P7351.c"	PWM0EC = 0;
                                           	BCLR	_T0CRbits,6
                                           ;	.line	959; "MC32P7351.c"	PWM1EC = 0;
                                           	BCLR	_T1CRbits,6
                                           ;	.line	961; "MC32P7351.c"	FLAG_IS_DEVICE_OPEN = 0;
                                           	BCLR	_flag1,0
                                           	GOTO	_00755_DS_
                                           _00753_DS_
                                           ;	.line	967; "MC32P7351.c"	shut_down_ms_cnt = 0;
                                           	CLRR	_shut_down_ms_cnt
                                           	CLRR	(_shut_down_ms_cnt + 1)
                                           	CLRR	(_shut_down_ms_cnt + 2)
                                           	CLRR	(_shut_down_ms_cnt + 3)
                                           _00755_DS_
                                           ;	.line	969; "MC32P7351.c"	}
                                           	RETURN	
                                           ; exit point of _shutdown_scan_handle
                                           
                                           ;***
                                           ;  pBlock Stats: dbName = C
                                           ;***
                                           ;entry:  _turn_dir_scan_handle	;Function start
                                           ; 2 exit points
                                           ;has an exit
                                           ;functions called:
                                           ;   _delay_ms
                                           ;   _delay_ms
                                           ;   _delay_ms
                                           ;   _delay_ms
                                           ;1 compiler assigned register :
                                           ;   STK00
                                           ;; Starting pCode block
                                           _turn_dir_scan_handle	;Function start
                                           ; 2 exit points
                                           ;	.line	910; "MC32P7351.c"	if (FLAG_IS_DEVICE_OPEN)
                                           	JBSET	_flag1,0
                                           	GOTO	_00720_DS_
                                           ;;unsigned compare: left < lit(0x1D4C0=120000), size=4
                                           ;	.line	914; "MC32P7351.c"	if (turn_dir_ms_cnt >= (120000) ||
                                           	MOVAI	0x00
                                           	RSUBAR	(_turn_dir_ms_cnt + 3)
                                           	JBSET	PFLAG,2
                                           	GOTO	_00736_DS_
                                           	MOVAI	0x01
                                           	RSUBAR	(_turn_dir_ms_cnt + 2)
                                           	JBSET	PFLAG,2
                                           	GOTO	_00736_DS_
                                           	MOVAI	0xd4
                                           	RSUBAR	(_turn_dir_ms_cnt + 1)
                                           	JBSET	PFLAG,2
                                           	GOTO	_00736_DS_
                                           	MOVAI	0xc0
                                           	RSUBAR	_turn_dir_ms_cnt
                                           _00736_DS_
                                           	JBCLR	PFLAG,0
                                           	GOTO	_00716_DS_
                                           ;;genSkipc:3291: created from rifx:013B5EFC
                                           ;	.line	915; "MC32P7351.c"	flag_ctl_dir)
                                           	JBSET	_flag3,0
                                           	GOTO	_00722_DS_
                                           _00716_DS_
                                           ;	.line	917; "MC32P7351.c"	if (0 == FLAG_DIR)
                                           	JBCLR	_flag1,3
                                           	GOTO	_00714_DS_
                                           ;	.line	919; "MC32P7351.c"	PWM1EC = 0;
                                           	BCLR	_T1CRbits,6
                                           ;	.line	920; "MC32P7351.c"	delay_ms(1000);
                                           	MOVAI	0xe8
                                           	MOVRA	STK00
                                           	MOVAI	0x03
                                           	CALL	_delay_ms
                                           ;	.line	921; "MC32P7351.c"	PWM0EC = 1;
                                           	BSET	_T0CRbits,6
                                           ;	.line	922; "MC32P7351.c"	FLAG_DIR = 1; //
                                           	BSET	_flag1,3
                                           	GOTO	_00715_DS_
                                           _00714_DS_
                                           ;	.line	926; "MC32P7351.c"	PWM0EC = 0; //
                                           	BCLR	_T0CRbits,6
                                           ;	.line	927; "MC32P7351.c"	delay_ms(1000);
                                           	MOVAI	0xe8
                                           	MOVRA	STK00
                                           	MOVAI	0x03
                                           	CALL	_delay_ms
                                           ;	.line	928; "MC32P7351.c"	PWM1EC = 1;   //
                                           	BSET	_T1CRbits,6
                                           ;	.line	929; "MC32P7351.c"	FLAG_DIR = 0; //
                                           	BCLR	_flag1,3
                                           _00715_DS_
                                           ;	.line	932; "MC32P7351.c"	flag_ctl_dir = 0;
                                           	BCLR	_flag3,0
                                           ;	.line	933; "MC32P7351.c"	turn_dir_ms_cnt = 0;
                                           	CLRR	_turn_dir_ms_cnt
                                           	CLRR	(_turn_dir_ms_cnt + 1)
                                           	CLRR	(_turn_dir_ms_cnt + 2)
                                           	CLRR	(_turn_dir_ms_cnt + 3)
                                           	GOTO	_00722_DS_
                                           _00720_DS_
                                           ;	.line	938; "MC32P7351.c"	turn_dir_ms_cnt = 0; // 设备未运行时，清空计数值
                                           	CLRR	_turn_dir_ms_cnt
                                           	CLRR	(_turn_dir_ms_cnt + 1)
                                           	CLRR	(_turn_dir_ms_cnt + 2)
                                           	CLRR	(_turn_dir_ms_cnt + 3)
                                           _00722_DS_
                                           ;	.line	940; "MC32P7351.c"	}
                                           	RETURN	
                                           ; exit point of _turn_dir_scan_handle
                                           
                                           ;***
                                           ;  pBlock Stats: dbName = C
                                           ;***
                                           ;entry:  _adc_scan_handle	;Function start
                                           ; 2 exit points
                                           ;has an exit
                                           ;functions called:
                                           ;   _adc_sel_pin
                                           ;   _adc_get_val
                                           ;   _key_event_handle
                                           ;   _adc_sel_pin
                                           ;   _adc_get_val
                                           ;   _key_event_handle
                                           ;   _adc_sel_pin
                                           ;   _adc_get_val
                                           ;   _key_event_handle
                                           ;   _adc_sel_pin
                                           ;   _adc_get_val
                                           ;   _key_event_handle
                                           ;1 compiler assigned register :
                                           ;   STK00
                                           ;; Starting pCode block
                                           _adc_scan_handle	;Function start
                                           ; 2 exit points
                                           ;	.line	629; "MC32P7351.c"	volatile u8 cnt = 0;             // 计数值，用于检测电池是否满电，也是用于检测是否插入/拔出充电器的计数值
                                           	CLRR	_adc_scan_handle_cnt_65536_98
                                           ;	.line	630; "MC32P7351.c"	volatile u8 need_charge_cnt = 0; // 计数值，用于检测是否要快速充电
                                           	CLRR	_adc_scan_handle_need_charge_cnt_65536_98
                                           ;	.line	632; "MC32P7351.c"	adc_bat_val = 0;
                                           	CLRR	_adc_bat_val
                                           	CLRR	(_adc_bat_val + 1)
                                           	CLRR	(_adc_bat_val + 2)
                                           	CLRR	(_adc_bat_val + 3)
                                           ;	.line	633; "MC32P7351.c"	adc_charging_val = 0;
                                           	CLRR	_adc_charging_val
                                           	CLRR	(_adc_charging_val + 1)
                                           ;	.line	635; "MC32P7351.c"	adc_sel_pin(ADC_PIN_P02_AN1); // 切换到检测电池降压后的电压的检测引脚
                                           	MOVAI	0x02
                                           	CALL	_adc_sel_pin
                                           ;	.line	636; "MC32P7351.c"	for (i = 0; i < 10; i++)      //  // 每55ms进入一次，循环内每次间隔约4.8ms
                                           	CLRR	_i
                                           ;;unsigned compare: left < lit(0xA=10), size=1
                                           _00536_DS_
                                           	MOVAI	0x0a
                                           	RSUBAR	_i
                                           	JBCLR	PFLAG,0
                                           	GOTO	_00489_DS_
                                           ;;genSkipc:3291: created from rifx:013B5EFC
                                           ;	.line	638; "MC32P7351.c"	adc_val = adc_get_val();
                                           	CALL	_adc_get_val
                                           	MOVRA	(_adc_val + 1)
                                           	MOVAR	STK00
                                           	MOVRA	_adc_val
                                           ;	.line	640; "MC32P7351.c"	if (i == 0)
                                           	MOVAI	0x00
                                           	ORAR	_i
                                           	JBSET	PFLAG,2
                                           	GOTO	_00413_DS_
                                           ;	.line	642; "MC32P7351.c"	adc_bat_val = adc_val;
                                           	MOVAR	_adc_val
                                           	MOVRA	_adc_bat_val
                                           	MOVAR	(_adc_val + 1)
                                           	MOVRA	(_adc_bat_val + 1)
                                           	CLRR	(_adc_bat_val + 2)
                                           	CLRR	(_adc_bat_val + 3)
                                           _00413_DS_
                                           ;	.line	645; "MC32P7351.c"	if (FLAG_IS_IN_CHARGING)
                                           	JBSET	_flag1,2
                                           	GOTO	_00487_DS_
                                           ;;unsigned compare: left < lit(0xF52=3922), size=2
                                           ;	.line	648; "MC32P7351.c"	if (adc_val >= ADCDETECT_BAT_FULL + ADCDETECT_BAT_NULL_EX)
                                           	MOVAI	0x0f
                                           	RSUBAR	(_adc_val + 1)
                                           	JBSET	PFLAG,2
                                           	GOTO	_00692_DS_
                                           	MOVAI	0x52
                                           	RSUBAR	_adc_val
                                           _00692_DS_
                                           	JBSET	PFLAG,0
                                           	GOTO	_00415_DS_
                                           ;;genSkipc:3291: created from rifx:013B5EFC
                                           ;	.line	651; "MC32P7351.c"	T2DATA = 0;
                                           	CLRR	_T2DATA
                                           ;	.line	652; "MC32P7351.c"	over_charging_cnt++;
                                           	INCR	_over_charging_cnt
                                           ;;unsigned compare: left < lit(0xE3A=3642), size=2
                                           _00415_DS_
                                           ;	.line	655; "MC32P7351.c"	if (adc_val >= ADCDETECT_BAT_FULL) // 检测电池是否满电
                                           	MOVAI	0x0e
                                           	RSUBAR	(_adc_val + 1)
                                           	JBSET	PFLAG,2
                                           	GOTO	_00693_DS_
                                           	MOVAI	0x3a
                                           	RSUBAR	_adc_val
                                           _00693_DS_
                                           	JBSET	PFLAG,0
                                           	GOTO	_00419_DS_
                                           ;;genSkipc:3291: created from rifx:013B5EFC
                                           ;	.line	657; "MC32P7351.c"	cnt++;
                                           	INCR	_adc_scan_handle_cnt_65536_98
                                           	GOTO	_00420_DS_
                                           ;;unsigned compare: left < lit(0xD90=3472), size=2
                                           _00419_DS_
                                           ;	.line	659; "MC32P7351.c"	else if (adc_val < ADCDETECT_BAT_WILL_FULL) // 检测是否要快速充电
                                           	MOVAI	0x0d
                                           	RSUBAR	(_adc_val + 1)
                                           	JBSET	PFLAG,2
                                           	GOTO	_00694_DS_
                                           	MOVAI	0x90
                                           	RSUBAR	_adc_val
                                           _00694_DS_
                                           	JBCLR	PFLAG,0
                                           	GOTO	_00420_DS_
                                           ;;genSkipc:3291: created from rifx:013B5EFC
                                           ;	.line	661; "MC32P7351.c"	need_charge_cnt++;
                                           	INCR	_adc_scan_handle_need_charge_cnt_65536_98
                                           ;;unsigned compare: left < lit(0xAB3420=11220000), size=4
                                           _00420_DS_
                                           ;	.line	665; "MC32P7351.c"	if (charge_time_cnt >= ((u32)3 * 60 * 60 * 1000 + (u32)7 * 60 * 1000) && 0 == flag_is_led_breath_disable) // 3h7min
                                           	MOVAI	0x00
                                           	RSUBAR	(_charge_time_cnt + 3)
                                           	JBSET	PFLAG,2
                                           	GOTO	_00695_DS_
                                           	MOVAI	0xab
                                           	RSUBAR	(_charge_time_cnt + 2)
                                           	JBSET	PFLAG,2
                                           	GOTO	_00695_DS_
                                           	MOVAI	0x34
                                           	RSUBAR	(_charge_time_cnt + 1)
                                           	JBSET	PFLAG,2
                                           	GOTO	_00695_DS_
                                           	MOVAI	0x20
                                           	RSUBAR	_charge_time_cnt
                                           _00695_DS_
                                           	JBSET	PFLAG,0
                                           	GOTO	_00428_DS_
                                           ;;genSkipc:3291: created from rifx:013B5EFC
                                           	JBCLR	_flag3,6
                                           	GOTO	_00428_DS_
                                           ;	.line	671; "MC32P7351.c"	flag_is_led_breath_disable = 1;
                                           	BSET	_flag3,6
                                           ;	.line	672; "MC32P7351.c"	LED_CHARGING_OFF(); // 关闭充电指示灯
                                           	BSET	_IOP0bits,4
                                           ;	.line	673; "MC32P7351.c"	LED_WORKING_ON();   // 打开电源指示灯，表示充满电
                                           	BCLR	_IOP1bits,4
                                           _00428_DS_
                                           ;	.line	676; "MC32P7351.c"	if (flag_bat_is_empty)
                                           	MOVAI	0x00
                                           	ORAR	_flag_bat_is_empty
                                           	JBCLR	PFLAG,2
                                           	GOTO	_00452_DS_
                                           ;	.line	680; "MC32P7351.c"	LED_CHARGING_OFF(); // 关闭充电指示灯
                                           	BSET	_IOP0bits,4
                                           ;	.line	681; "MC32P7351.c"	PWM2EC = 0;         // 关闭控制升压电路的pwm（建议是，插上充钱器时，不关闭控制升压电路的PWM，但是在测试时，充电一侧会严重发热）
                                           	BCLR	_T2CRbits,6
                                           ;	.line	682; "MC32P7351.c"	T2DATA = 0;
                                           	CLRR	_T2DATA
                                           ;	.line	683; "MC32P7351.c"	FLAG_BAT_IS_NEED_CHARGE = 0;
                                           	BCLR	_flag1,4
                                           ;	.line	684; "MC32P7351.c"	FLAG_DURING_CHARGING_BAT_IS_NULL = 1; // 标志位置一，在主循环让绿灯快闪
                                           	BSET	_flag1,7
                                           ;	.line	686; "MC32P7351.c"	break;
                                           	GOTO	_00489_DS_
                                           ;;unsigned compare: left < lit(0x8=8), size=1
                                           _00452_DS_
                                           ;	.line	688; "MC32P7351.c"	else if (cnt >= 8 || over_charging_cnt >= 8)
                                           	MOVAI	0x08
                                           	RSUBAR	_adc_scan_handle_cnt_65536_98
                                           	JBCLR	PFLAG,0
                                           	GOTO	_00447_DS_
                                           ;;genSkipc:3291: created from rifx:013B5EFC
                                           ;;unsigned compare: left < lit(0x8=8), size=1
                                           	MOVAI	0x08
                                           	RSUBAR	_over_charging_cnt
                                           	JBSET	PFLAG,0
                                           	GOTO	_00448_DS_
                                           ;;genSkipc:3291: created from rifx:013B5EFC
                                           _00447_DS_
                                           ;	.line	691; "MC32P7351.c"	full_charge_cnt++;
                                           	INCR	_full_charge_cnt
                                           ;;unsigned compare: left < lit(0x64=100), size=1
                                           ;	.line	692; "MC32P7351.c"	if (full_charge_cnt >= 100 || over_charging_cnt >= 8) // 5.5s或者是连续触发了若干次过充保护
                                           	MOVAI	0x64
                                           	RSUBAR	_full_charge_cnt
                                           	JBCLR	PFLAG,0
                                           	GOTO	_00439_DS_
                                           ;;genSkipc:3291: created from rifx:013B5EFC
                                           ;;unsigned compare: left < lit(0x8=8), size=1
                                           	MOVAI	0x08
                                           	RSUBAR	_over_charging_cnt
                                           	JBSET	PFLAG,0
                                           	GOTO	_00488_DS_
                                           ;;genSkipc:3291: created from rifx:013B5EFC
                                           _00439_DS_
                                           ;	.line	694; "MC32P7351.c"	full_charge_cnt = 0; //
                                           	CLRR	_full_charge_cnt
                                           ;	.line	696; "MC32P7351.c"	PWM2EC = 0; // 关闭控制升压电路的pwm
                                           	BCLR	_T2CRbits,6
                                           ;	.line	697; "MC32P7351.c"	T2DATA = 0;
                                           	CLRR	_T2DATA
                                           ;	.line	699; "MC32P7351.c"	FLAG_BAT_IS_NEED_CHARGE = 0;
                                           	BCLR	_flag1,4
                                           ;	.line	700; "MC32P7351.c"	FLAG_BAT_IS_FULL = 1;
                                           	BSET	_flag1,5
                                           ;	.line	702; "MC32P7351.c"	LED_CHARGING_OFF(); // 关闭充电指示灯
                                           	BSET	_IOP0bits,4
                                           ;	.line	705; "MC32P7351.c"	LED_WORKING_ON(); // 打开电源指示灯，表示充满电
                                           	BCLR	_IOP1bits,4
                                           ;	.line	706; "MC32P7351.c"	break;
                                           	GOTO	_00489_DS_
                                           ;;unsigned compare: left < lit(0x8=8), size=1
                                           _00448_DS_
                                           ;	.line	709; "MC32P7351.c"	else if (need_charge_cnt >= 8)
                                           	MOVAI	0x08
                                           	RSUBAR	_adc_scan_handle_need_charge_cnt_65536_98
                                           	JBSET	PFLAG,0
                                           	GOTO	_00488_DS_
                                           ;;genSkipc:3291: created from rifx:013B5EFC
                                           ;	.line	713; "MC32P7351.c"	LED_FULL_CHARGE_OFF(); // 关闭充满电的指示灯
                                           	BSET	_IOP0bits,3
                                           ;	.line	714; "MC32P7351.c"	FLAG_BAT_IS_NEED_CHARGE = 1;
                                           	BSET	_flag1,4
                                           ;	.line	715; "MC32P7351.c"	FLAG_BAT_IS_FULL = 0;
                                           	BCLR	_flag1,5
                                           ;	.line	716; "MC32P7351.c"	break;
                                           	GOTO	_00489_DS_
                                           _00487_DS_
                                           ;	.line	722; "MC32P7351.c"	if (flag_bat_is_empty == 0 && adc_val <= ADCDETECT_BAT_FULL - ((ADCDETECT_BAT_FULL - ADCDETECT_BAT_WILL_FULL) / 2))
                                           	MOVAI	0x00
                                           	ORAR	_flag_bat_is_empty
                                           	JBSET	PFLAG,2
                                           	GOTO	_00455_DS_
                                           ;;swapping arguments (AOP_TYPEs 1/3)
                                           ;;unsigned compare: left >= lit(0xDE6=3558), size=2
                                           	MOVAI	0x0d
                                           	RSUBAR	(_adc_val + 1)
                                           	JBSET	PFLAG,2
                                           	GOTO	_00701_DS_
                                           	MOVAI	0xe6
                                           	RSUBAR	_adc_val
                                           _00701_DS_
                                           	JBCLR	PFLAG,0
                                           	GOTO	_00455_DS_
                                           ;;genSkipc:3291: created from rifx:013B5EFC
                                           ;	.line	724; "MC32P7351.c"	cnt++;
                                           	INCR	_adc_scan_handle_cnt_65536_98
                                           ;;unsigned compare: left < lit(0x8=8), size=1
                                           _00455_DS_
                                           ;	.line	727; "MC32P7351.c"	if (cnt >= 8)
                                           	MOVAI	0x08
                                           	RSUBAR	_adc_scan_handle_cnt_65536_98
                                           	JBSET	PFLAG,0
                                           	GOTO	_00458_DS_
                                           ;;genSkipc:3291: created from rifx:013B5EFC
                                           ;	.line	730; "MC32P7351.c"	FLAG_BAT_IS_NEED_CHARGE = 1;
                                           	BSET	_flag1,4
                                           ;	.line	731; "MC32P7351.c"	FLAG_BAT_IS_FULL = 0;
                                           	BCLR	_flag1,5
                                           ;	.line	732; "MC32P7351.c"	break;
                                           	GOTO	_00489_DS_
                                           _00458_DS_
                                           ;	.line	736; "MC32P7351.c"	flag_bat_is_empty == 0 &&  /* 电池不为空 */
                                           	MOVAI	0x00
                                           	ORAR	_flag_bat_is_empty
                                           	JBSET	PFLAG,2
                                           	GOTO	_00465_DS_
                                           ;	.line	737; "MC32P7351.c"	FLAG_IS_DEVICE_OPEN &&     /* 设备正在运行 */
                                           	JBSET	_flag1,0
                                           	GOTO	_00465_DS_
                                           ;;unsigned compare: left < lit(0xA93=2707), size=2
                                           ;	.line	739; "MC32P7351.c"	)
                                           	MOVAI	0x0a
                                           	RSUBAR	(_adc_val + 1)
                                           	JBSET	PFLAG,2
                                           	GOTO	_00703_DS_
                                           	MOVAI	0x93
                                           	RSUBAR	_adc_val
                                           _00703_DS_
                                           	JBCLR	PFLAG,0
                                           	GOTO	_00465_DS_
                                           ;;genSkipc:3291: created from rifx:013B5EFC
                                           ;	.line	741; "MC32P7351.c"	flag_tim_scan_maybe_shut_down = 1;
                                           	BSET	_flag3,3
                                           	GOTO	_00466_DS_
                                           _00465_DS_
                                           ;	.line	743; "MC32P7351.c"	else if (flag_bat_is_empty == 0 &&
                                           	MOVAI	0x00
                                           	ORAR	_flag_bat_is_empty
                                           	JBSET	PFLAG,2
                                           	GOTO	_00460_DS_
                                           ;	.line	744; "MC32P7351.c"	FLAG_IS_DEVICE_OPEN &&
                                           	JBSET	_flag1,0
                                           	GOTO	_00460_DS_
                                           ;;unsigned compare: left < lit(0xB15=2837), size=2
                                           ;	.line	745; "MC32P7351.c"	adc_val < LOW_BATTERY_AD_VAL)
                                           	MOVAI	0x0b
                                           	RSUBAR	(_adc_val + 1)
                                           	JBSET	PFLAG,2
                                           	GOTO	_00704_DS_
                                           	MOVAI	0x15
                                           	RSUBAR	_adc_val
                                           _00704_DS_
                                           	JBCLR	PFLAG,0
                                           	GOTO	_00460_DS_
                                           ;;genSkipc:3291: created from rifx:013B5EFC
                                           ;	.line	748; "MC32P7351.c"	flag_maybe_low_battery = 1;
                                           	BSET	_flag3,2
                                           ;	.line	749; "MC32P7351.c"	flag_tim_scan_maybe_shut_down = 0;
                                           	BCLR	_flag3,3
                                           	GOTO	_00466_DS_
                                           _00460_DS_
                                           ;	.line	753; "MC32P7351.c"	flag_maybe_low_battery = 0;
                                           	BCLR	_flag3,2
                                           ;	.line	754; "MC32P7351.c"	flag_tim_scan_maybe_shut_down = 0;
                                           	BCLR	_flag3,3
                                           _00466_DS_
                                           ;	.line	758; "MC32P7351.c"	if (flag_is_needed_shut_down && FLAG_IS_DEVICE_OPEN)
                                           	JBSET	_flag3,4
                                           	GOTO	_00488_DS_
                                           	JBSET	_flag1,0
                                           	GOTO	_00488_DS_
                                           ;	.line	760; "MC32P7351.c"	flag_is_needed_shut_down = 0;
                                           	BCLR	_flag3,4
                                           ;	.line	762; "MC32P7351.c"	LED_WORKING_OFF(); // 关闭电源指示灯
                                           	BSET	_IOP1bits,4
                                           ;	.line	763; "MC32P7351.c"	LED_CHARGING_OFF();
                                           	BSET	_IOP0bits,4
                                           ;	.line	764; "MC32P7351.c"	HEATING_OFF(); // 关闭加热
                                           	BCLR	_IOP1bits,2
                                           ;	.line	765; "MC32P7351.c"	FLAG_IS_DEVICE_OPEN = 0;
                                           	BCLR	_flag1,0
                                           ;	.line	766; "MC32P7351.c"	FLAG_IS_HEATING = 0;
                                           	BCLR	_flag1,1
                                           ;	.line	768; "MC32P7351.c"	if (flag_is_low_battery)
                                           	JBSET	_flag2,2
                                           	GOTO	_00482_DS_
                                           ;	.line	771; "MC32P7351.c"	flag_is_low_battery = 0;
                                           	BCLR	_flag2,2
                                           ;	.line	772; "MC32P7351.c"	LED_CHARGING_OFF(); // 关闭用于报警的LED
                                           	BSET	_IOP0bits,4
                                           _00482_DS_
                                           ;	.line	775; "MC32P7351.c"	mode_flag = MODE_1; // 下一次切换模式时，会变成 MODE_2
                                           	CLRR	_mode_flag
                                           ;	.line	778; "MC32P7351.c"	PWM0EC = 0;
                                           	BCLR	_T0CRbits,6
                                           ;	.line	779; "MC32P7351.c"	PWM1EC = 0;
                                           	BCLR	_T1CRbits,6
                                           _00488_DS_
                                           ;	.line	784; "MC32P7351.c"	key_event_handle();
                                           	CALL	_key_event_handle
                                           ;	.line	636; "MC32P7351.c"	for (i = 0; i < 10; i++)      //  // 每55ms进入一次，循环内每次间隔约4.8ms
                                           	INCR	_i
                                           	GOTO	_00536_DS_
                                           _00489_DS_
                                           ;	.line	787; "MC32P7351.c"	cnt = 0;
                                           	CLRR	_adc_scan_handle_cnt_65536_98
                                           ;	.line	788; "MC32P7351.c"	adc_sel_pin(ADC_PIN_P00_AN0); // 切换到检测充电的电压检测引脚(检测到的充电电压 == USB-C口电压 / 2)
                                           	MOVAI	0x01
                                           	CALL	_adc_sel_pin
                                           ;	.line	789; "MC32P7351.c"	for (i = 0; i < 10; i++)
                                           	CLRR	_i
                                           ;;unsigned compare: left < lit(0xA=10), size=1
                                           _00539_DS_
                                           	MOVAI	0x0a
                                           	RSUBAR	_i
                                           	JBCLR	PFLAG,0
                                           	GOTO	_00541_DS_
                                           ;;genSkipc:3291: created from rifx:013B5EFC
                                           ;	.line	791; "MC32P7351.c"	adc_val = adc_get_val();
                                           	CALL	_adc_get_val
                                           	MOVRA	(_adc_val + 1)
                                           	MOVAR	STK00
                                           	MOVRA	_adc_val
                                           ;	.line	792; "MC32P7351.c"	if (flag_bat_is_empty) // 如果电池为空
                                           	MOVAI	0x00
                                           	ORAR	_flag_bat_is_empty
                                           	JBCLR	PFLAG,2
                                           	GOTO	_00491_DS_
                                           ;	.line	794; "MC32P7351.c"	adc_val = 4095; // 防止进入下面的if (adc_val < ADCDETECT_CHARING_THRESHOLD)
                                           	MOVAI	0xff
                                           	MOVRA	_adc_val
                                           	MOVAI	0x0f
                                           	MOVRA	(_adc_val + 1)
                                           _00491_DS_
                                           ;	.line	797; "MC32P7351.c"	if (adc_charging_val != 0)
                                           	MOVAR	_adc_charging_val
                                           	ORAR	(_adc_charging_val + 1)
                                           	JBCLR	PFLAG,2
                                           	GOTO	_00493_DS_
                                           ;	.line	799; "MC32P7351.c"	adc_charging_val += adc_val;
                                           	MOVAR	_adc_val
                                           	ADDRA	_adc_charging_val
                                           	MOVAR	(_adc_val + 1)
                                           	JBCLR	PFLAG,0
                                           	JZAR	(_adc_val + 1)
                                           	ADDRA	(_adc_charging_val + 1)
                                           ;;shiftRight_Left2ResultLit:5339: shCount=1, size=2, sign=0, same=1, offr=0
                                           ;	.line	800; "MC32P7351.c"	adc_charging_val /= 2;
                                           	BCLR	PFLAG,0
                                           	RRR	(_adc_charging_val + 1)
                                           	RRR	_adc_charging_val
                                           	GOTO	_00494_DS_
                                           _00493_DS_
                                           ;	.line	804; "MC32P7351.c"	adc_charging_val += adc_val;
                                           	MOVAR	_adc_val
                                           	ADDRA	_adc_charging_val
                                           	MOVAR	(_adc_val + 1)
                                           	JBCLR	PFLAG,0
                                           	JZAR	(_adc_val + 1)
                                           	ADDRA	(_adc_charging_val + 1)
                                           _00494_DS_
                                           ;	.line	807; "MC32P7351.c"	if (FLAG_IS_IN_CHARGING)
                                           	JBSET	_flag1,2
                                           	GOTO	_00532_DS_
                                           ;;unsigned compare: left < lit(0x800=2048), size=2
                                           ;	.line	810; "MC32P7351.c"	if (adc_val < ADCDETECT_CHARING_THRESHOLD)
                                           	MOVAI	0x08
                                           	RSUBAR	(_adc_val + 1)
                                           	JBSET	PFLAG,2
                                           	GOTO	_00706_DS_
                                           	MOVAI	0x00
                                           	RSUBAR	_adc_val
                                           _00706_DS_
                                           	JBCLR	PFLAG,0
                                           	GOTO	_00496_DS_
                                           ;;genSkipc:3291: created from rifx:013B5EFC
                                           ;	.line	812; "MC32P7351.c"	cnt++;
                                           	INCR	_adc_scan_handle_cnt_65536_98
                                           ;;unsigned compare: left < lit(0x8=8), size=1
                                           _00496_DS_
                                           ;	.line	815; "MC32P7351.c"	if (cnt >= 8)
                                           	MOVAI	0x08
                                           	RSUBAR	_adc_scan_handle_cnt_65536_98
                                           	JBSET	PFLAG,0
                                           	GOTO	_00507_DS_
                                           ;;genSkipc:3291: created from rifx:013B5EFC
                                           ;	.line	818; "MC32P7351.c"	FLAG_IS_IN_CHARGING = 0;
                                           	BCLR	_flag1,2
                                           ;	.line	819; "MC32P7351.c"	LED_CHARGING_OFF(); // 关闭充电指示灯
                                           	BSET	_IOP0bits,4
                                           ;	.line	820; "MC32P7351.c"	PWM2EC = 0;         // 关闭控制升压电路的pwm
                                           	BCLR	_T2CRbits,6
                                           ;	.line	821; "MC32P7351.c"	T2DATA = 0;
                                           	CLRR	_T2DATA
                                           ;	.line	822; "MC32P7351.c"	LED_FULL_CHARGE_OFF(); // 关闭电池充满电的指示灯
                                           	BSET	_IOP0bits,3
                                           ;	.line	823; "MC32P7351.c"	LED_WORKING_OFF();     // 关闭电池充满电的指示灯（白灯）
                                           	BSET	_IOP1bits,4
                                           ;	.line	825; "MC32P7351.c"	FLAG_DURING_CHARGING_BAT_IS_NULL = 0; // 清空该标志位，因为已经不在充电的情况下
                                           	BCLR	_flag1,7
                                           ;	.line	827; "MC32P7351.c"	flag_is_led_breath_disable = 0; // 清空该标志位
                                           	BCLR	_flag3,6
                                           ;	.line	828; "MC32P7351.c"	break;
                                           	GOTO	_00541_DS_
                                           _00507_DS_
                                           ;	.line	831; "MC32P7351.c"	if (FLAG_IS_DEVICE_OPEN)
                                           	JBCLR	_flag1,0
                                           	GOTO	_00533_DS_
                                           ;	.line	836; "MC32P7351.c"	if (FLAG_BAT_IS_FULL)
                                           	JBCLR	_flag1,5
                                           	GOTO	_00533_DS_
                                           ;	.line	842; "MC32P7351.c"	LED_FULL_CHARGE_OFF();
                                           	BSET	_IOP0bits,3
                                           	GOTO	_00533_DS_
                                           _00532_DS_
                                           ;	.line	852; "MC32P7351.c"	if (flag_bat_is_empty == 0 && adc_val >= ADCDETECT_CHARING_THRESHOLD)
                                           	MOVAI	0x00
                                           	ORAR	_flag_bat_is_empty
                                           	JBSET	PFLAG,2
                                           	GOTO	_00518_DS_
                                           ;;unsigned compare: left < lit(0x800=2048), size=2
                                           	MOVAI	0x08
                                           	RSUBAR	(_adc_val + 1)
                                           	JBSET	PFLAG,2
                                           	GOTO	_00708_DS_
                                           	MOVAI	0x00
                                           	RSUBAR	_adc_val
                                           _00708_DS_
                                           	JBSET	PFLAG,0
                                           	GOTO	_00518_DS_
                                           ;;genSkipc:3291: created from rifx:013B5EFC
                                           ;	.line	854; "MC32P7351.c"	cnt++;
                                           	INCR	_adc_scan_handle_cnt_65536_98
                                           ;;unsigned compare: left < lit(0x8=8), size=1
                                           _00518_DS_
                                           ;	.line	857; "MC32P7351.c"	if (cnt >= 8)
                                           	MOVAI	0x08
                                           	RSUBAR	_adc_scan_handle_cnt_65536_98
                                           	JBSET	PFLAG,0
                                           	GOTO	_00533_DS_
                                           ;;genSkipc:3291: created from rifx:013B5EFC
                                           ;	.line	861; "MC32P7351.c"	full_charge_cnt = 0;
                                           	CLRR	_full_charge_cnt
                                           ;	.line	862; "MC32P7351.c"	over_charging_cnt = 0;
                                           	CLRR	_over_charging_cnt
                                           ;	.line	864; "MC32P7351.c"	FLAG_IS_IN_CHARGING = 1;
                                           	BSET	_flag1,2
                                           ;	.line	867; "MC32P7351.c"	PWM2EC = 1; // 开启控制升压电路的pwm
                                           	BSET	_T2CRbits,6
                                           ;	.line	868; "MC32P7351.c"	LED_FULL_CHARGE_OFF();
                                           	BSET	_IOP0bits,3
                                           ;	.line	869; "MC32P7351.c"	LED_WORKING_OFF(); // 关闭电源指示灯
                                           	BSET	_IOP1bits,4
                                           ;	.line	870; "MC32P7351.c"	HEATING_OFF();     // 关闭加热
                                           	BCLR	_IOP1bits,2
                                           ;	.line	871; "MC32P7351.c"	FLAG_IS_DEVICE_OPEN = 0;
                                           	BCLR	_flag1,0
                                           ;	.line	872; "MC32P7351.c"	FLAG_IS_HEATING = 0;
                                           	BCLR	_flag1,1
                                           ;	.line	873; "MC32P7351.c"	mode_flag = MODE_1; // 下一次切换模式时，会变成 MODE_2
                                           	CLRR	_mode_flag
                                           ;	.line	875; "MC32P7351.c"	PWM0EC = 0;
                                           	BCLR	_T0CRbits,6
                                           ;	.line	876; "MC32P7351.c"	PWM1EC = 0;
                                           	BCLR	_T1CRbits,6
                                           ;	.line	878; "MC32P7351.c"	flag_is_low_battery = 0; // 清除该标志位
                                           	BCLR	_flag2,2
                                           ;	.line	879; "MC32P7351.c"	break;
                                           	GOTO	_00541_DS_
                                           _00533_DS_
                                           ;	.line	904; "MC32P7351.c"	key_event_handle();
                                           	CALL	_key_event_handle
                                           ;	.line	789; "MC32P7351.c"	for (i = 0; i < 10; i++)
                                           	INCR	_i
                                           	GOTO	_00539_DS_
                                           _00541_DS_
                                           ;	.line	906; "MC32P7351.c"	}
                                           	RETURN	
                                           ; exit point of _adc_scan_handle
                                           
                                           ;***
                                           ;  pBlock Stats: dbName = C
                                           ;***
                                           ;entry:  _key_event_handle	;Function start
                                           ; 2 exit points
                                           ;has an exit
                                           ;; Starting pCode block
                                           _key_event_handle	;Function start
                                           ; 2 exit points
                                           ;	.line	517; "MC32P7351.c"	if (FLAG_IS_DEVICE_OPEN)
                                           	JBSET	_flag1,0
                                           	GOTO	_00406_DS_
                                           ;	.line	520; "MC32P7351.c"	if (KEY_EVENT_MODE_HOLD == key_event)
                                           	MOVAR	_key_event
                                           	XORAI	0x03
                                           	JBSET	PFLAG,2
                                           	GOTO	_00391_DS_
                                           ;	.line	523; "MC32P7351.c"	LED_WORKING_OFF(); // 关闭电源指示灯
                                           	BSET	_IOP1bits,4
                                           ;	.line	524; "MC32P7351.c"	LED_CHARGING_OFF();
                                           	BSET	_IOP0bits,4
                                           ;	.line	525; "MC32P7351.c"	HEATING_OFF(); // 关闭加热
                                           	BCLR	_IOP1bits,2
                                           ;	.line	526; "MC32P7351.c"	FLAG_IS_DEVICE_OPEN = 0;
                                           	BCLR	_flag1,0
                                           ;	.line	527; "MC32P7351.c"	FLAG_IS_HEATING = 0;
                                           	BCLR	_flag1,1
                                           ;	.line	529; "MC32P7351.c"	if (flag_is_low_battery)
                                           	JBSET	_flag2,2
                                           	GOTO	_00352_DS_
                                           ;	.line	532; "MC32P7351.c"	flag_is_low_battery = 0;
                                           	BCLR	_flag2,2
                                           ;	.line	533; "MC32P7351.c"	LED_CHARGING_OFF(); // 关闭用于报警的LED
                                           	BSET	_IOP0bits,4
                                           _00352_DS_
                                           ;	.line	536; "MC32P7351.c"	mode_flag = MODE_1; // 下一次切换模式时，会变成 MODE_2
                                           	CLRR	_mode_flag
                                           ;	.line	539; "MC32P7351.c"	PWM0EC = 0;
                                           	BCLR	_T0CRbits,6
                                           ;	.line	540; "MC32P7351.c"	PWM1EC = 0;
                                           	BCLR	_T1CRbits,6
                                           	GOTO	_00407_DS_
                                           _00391_DS_
                                           ;	.line	542; "MC32P7351.c"	else if (KEY_EVENT_MODE_PRESS == key_event)
                                           	MOVAR	_key_event
                                           	XORAI	0x02
                                           	JBSET	PFLAG,2
                                           	GOTO	_00388_DS_
                                           ;	.line	544; "MC32P7351.c"	if (MODE_1 == mode_flag)
                                           	MOVAI	0x00
                                           	ORAR	_mode_flag
                                           	JBSET	PFLAG,2
                                           	GOTO	_00362_DS_
                                           ;	.line	547; "MC32P7351.c"	T0DATA = 160;
                                           	MOVAI	0xa0
                                           	MOVRA	_T0DATA
                                           ;	.line	548; "MC32P7351.c"	T1DATA = 160;
                                           	MOVAI	0xa0
                                           	MOVRA	_T1DATA
                                           ;	.line	550; "MC32P7351.c"	mode_flag = MODE_2;
                                           	MOVAI	0x01
                                           	MOVRA	_mode_flag
                                           ;	.line	551; "MC32P7351.c"	flag_ctl_dir = 1;
                                           	BSET	_flag3,0
                                           	GOTO	_00363_DS_
                                           _00362_DS_
                                           ;	.line	553; "MC32P7351.c"	else if (MODE_2 == mode_flag)
                                           	MOVAR	_mode_flag
                                           	XORAI	0x01
                                           	JBSET	PFLAG,2
                                           	GOTO	_00359_DS_
                                           ;	.line	556; "MC32P7351.c"	T0DATA = 255;
                                           	MOVAI	0xff
                                           	MOVRA	_T0DATA
                                           ;	.line	557; "MC32P7351.c"	T1DATA = 255; // 100%占空比（确保大于TxLOAD的值就可以）
                                           	MOVAI	0xff
                                           	MOVRA	_T1DATA
                                           ;	.line	559; "MC32P7351.c"	mode_flag = MODE_3;
                                           	MOVAI	0x02
                                           	MOVRA	_mode_flag
                                           ;	.line	560; "MC32P7351.c"	flag_ctl_dir = 1;
                                           	BSET	_flag3,0
                                           	GOTO	_00363_DS_
                                           _00359_DS_
                                           ;	.line	562; "MC32P7351.c"	else if (MODE_3 == mode_flag)
                                           	MOVAR	_mode_flag
                                           	XORAI	0x02
                                           	JBSET	PFLAG,2
                                           	GOTO	_00356_DS_
                                           ;	.line	565; "MC32P7351.c"	T0DATA = 0;
                                           	CLRR	_T0DATA
                                           ;	.line	566; "MC32P7351.c"	T1DATA = 0;
                                           	CLRR	_T1DATA
                                           ;	.line	567; "MC32P7351.c"	PWM0EC = 0;
                                           	BCLR	_T0CRbits,6
                                           ;	.line	568; "MC32P7351.c"	PWM1EC = 0;
                                           	BCLR	_T1CRbits,6
                                           ;	.line	569; "MC32P7351.c"	mode_flag = MODE_4;
                                           	MOVAI	0x03
                                           	MOVRA	_mode_flag
                                           	GOTO	_00363_DS_
                                           _00356_DS_
                                           ;	.line	571; "MC32P7351.c"	else if (MODE_4 == mode_flag)
                                           	MOVAR	_mode_flag
                                           	XORAI	0x03
                                           	JBSET	PFLAG,2
                                           	GOTO	_00363_DS_
                                           ;	.line	575; "MC32P7351.c"	T0DATA = 150;
                                           	MOVAI	0x96
                                           	MOVRA	_T0DATA
                                           ;	.line	576; "MC32P7351.c"	T1DATA = 150;
                                           	MOVAI	0x96
                                           	MOVRA	_T1DATA
                                           ;	.line	577; "MC32P7351.c"	mode_flag = MODE_1;
                                           	CLRR	_mode_flag
                                           ;	.line	578; "MC32P7351.c"	flag_ctl_dir = 1;
                                           	BSET	_flag3,0
                                           _00363_DS_
                                           ;	.line	581; "MC32P7351.c"	turn_dir_ms_cnt = 0; // 重置切换方向的计数
                                           	CLRR	_turn_dir_ms_cnt
                                           	CLRR	(_turn_dir_ms_cnt + 1)
                                           	CLRR	(_turn_dir_ms_cnt + 2)
                                           	CLRR	(_turn_dir_ms_cnt + 3)
                                           	GOTO	_00407_DS_
                                           _00388_DS_
                                           ;	.line	583; "MC32P7351.c"	else if (KEY_EVENT_HEAT_PRESS == key_event)
                                           	MOVAR	_key_event
                                           	XORAI	0x01
                                           	JBSET	PFLAG,2
                                           	GOTO	_00407_DS_
                                           ;	.line	585; "MC32P7351.c"	if (0 == FLAG_IS_HEATING)
                                           	JBCLR	_flag1,1
                                           	GOTO	_00373_DS_
                                           ;	.line	587; "MC32P7351.c"	HEATING_ON(); // 打开加热
                                           	BSET	_IOP1bits,2
                                           ;	.line	588; "MC32P7351.c"	LED_WORKING_OFF();
                                           	BSET	_IOP1bits,4
                                           ;	.line	589; "MC32P7351.c"	LED_CHARGING_ON();
                                           	BCLR	_IOP0bits,4
                                           ;	.line	590; "MC32P7351.c"	FLAG_IS_HEATING = 1;
                                           	BSET	_flag1,1
                                           	GOTO	_00407_DS_
                                           _00373_DS_
                                           ;	.line	594; "MC32P7351.c"	HEATING_OFF(); // 关闭加热
                                           	BCLR	_IOP1bits,2
                                           ;	.line	595; "MC32P7351.c"	LED_CHARGING_OFF();
                                           	BSET	_IOP0bits,4
                                           ;	.line	596; "MC32P7351.c"	LED_WORKING_ON();
                                           	BCLR	_IOP1bits,4
                                           ;	.line	597; "MC32P7351.c"	FLAG_IS_HEATING = 0;
                                           	BCLR	_flag1,1
                                           	GOTO	_00407_DS_
                                           _00406_DS_
                                           ;	.line	604; "MC32P7351.c"	if (KEY_EVENT_MODE_HOLD == key_event && 0 == FLAG_IS_IN_CHARGING)
                                           	MOVAR	_key_event
                                           	XORAI	0x03
                                           	JBSET	PFLAG,2
                                           	GOTO	_00407_DS_
                                           	JBCLR	_flag1,2
                                           	GOTO	_00407_DS_
                                           ;	.line	606; "MC32P7351.c"	LED_FULL_CHARGE_OFF(); // 关闭满电指示灯
                                           	BSET	_IOP0bits,3
                                           ;	.line	607; "MC32P7351.c"	LED_CHARGING_OFF();    // 关闭充电指示灯
                                           	BSET	_IOP0bits,4
                                           ;	.line	608; "MC32P7351.c"	LED_WORKING_ON();      // 打开电源指示灯
                                           	BCLR	_IOP1bits,4
                                           ;	.line	609; "MC32P7351.c"	FLAG_IS_DEVICE_OPEN = 1;
                                           	BSET	_flag1,0
                                           ;	.line	612; "MC32P7351.c"	T0DATA = 150;
                                           	MOVAI	0x96
                                           	MOVRA	_T0DATA
                                           ;	.line	613; "MC32P7351.c"	T1DATA = 150;
                                           	MOVAI	0x96
                                           	MOVRA	_T1DATA
                                           ;	.line	614; "MC32P7351.c"	mode_flag = MODE_1; // 下一次切换模式时，会变成 MODE_2
                                           	CLRR	_mode_flag
                                           ;	.line	619; "MC32P7351.c"	PWM1EC = 1;
                                           	BSET	_T1CRbits,6
                                           _00407_DS_
                                           ;	.line	624; "MC32P7351.c"	key_event = KEY_EVENT_NONE;
                                           	CLRR	_key_event
                                           ;	.line	625; "MC32P7351.c"	}
                                           	RETURN	
                                           ; exit point of _key_event_handle
                                           
                                           ;***
                                           ;  pBlock Stats: dbName = C
                                           ;***
                                           ;entry:  _key_scan	;Function start
                                           ; 2 exit points
                                           ;has an exit
                                           ;; Starting pCode block
                                           _key_scan	;Function start
                                           ; 2 exit points
                                           ;	.line	400; "MC32P7351.c"	volatile u8 cur_key_id = KEY_ID_NONE;
                                           	CLRR	_key_scan_cur_key_id_65536_33
                                           ;	.line	404; "MC32P7351.c"	if (0 == KEY_MODE_PIN)
                                           	JBCLR	_IOP0bits,1
                                           	GOTO	_00211_DS_
                                           ;	.line	406; "MC32P7351.c"	cur_key_id = KEY_ID_MODE;
                                           	MOVAI	0x01
                                           	MOVRA	_key_scan_cur_key_id_65536_33
                                           	GOTO	_00212_DS_
                                           _00211_DS_
                                           ;	.line	408; "MC32P7351.c"	else if (0 == KEY_HEAT_PIN)
                                           	JBCLR	_IOP1bits,1
                                           	GOTO	_00212_DS_
                                           ;	.line	410; "MC32P7351.c"	cur_key_id = KEY_ID_HEAT;
                                           	MOVAI	0x02
                                           	MOVRA	_key_scan_cur_key_id_65536_33
                                           _00212_DS_
                                           ;	.line	413; "MC32P7351.c"	if (cur_key_id != filter_key_id)
                                           	MOVAR	_key_scan_filter_key_id_65536_33
                                           	XORAR	_key_scan_cur_key_id_65536_33
                                           	JBSET	PFLAG,2
                                           	GOTO	_00332_DS_
                                           	GOTO	_00214_DS_
                                           _00332_DS_
                                           ;	.line	416; "MC32P7351.c"	filter_cnt = 0;
                                           	CLRR	_key_scan_filter_cnt_65536_33
                                           ;	.line	417; "MC32P7351.c"	filter_key_id = cur_key_id;
                                           	MOVAR	_key_scan_cur_key_id_65536_33
                                           	MOVRA	_key_scan_filter_key_id_65536_33
                                           ;	.line	418; "MC32P7351.c"	return;
                                           	GOTO	_00254_DS_
                                           ;;unsigned compare: left < lit(0x3=3), size=1
                                           _00214_DS_
                                           ;	.line	421; "MC32P7351.c"	if (filter_cnt < KEY_FILTER_TIMES)
                                           	MOVAI	0x03
                                           	RSUBAR	_key_scan_filter_cnt_65536_33
                                           	JBCLR	PFLAG,0
                                           	GOTO	_00216_DS_
                                           ;;genSkipc:3291: created from rifx:013B5EFC
                                           ;	.line	425; "MC32P7351.c"	filter_cnt++;
                                           	INCR	_key_scan_filter_cnt_65536_33
                                           ;	.line	426; "MC32P7351.c"	return;
                                           	GOTO	_00254_DS_
                                           _00216_DS_
                                           ;	.line	431; "MC32P7351.c"	if (last_key_id != cur_key_id)
                                           	MOVAR	_key_scan_cur_key_id_65536_33
                                           	XORAR	_key_scan_last_key_id_65536_33
                                           	JBSET	PFLAG,2
                                           	GOTO	_00334_DS_
                                           	GOTO	_00252_DS_
                                           _00334_DS_
                                           ;	.line	433; "MC32P7351.c"	if (last_key_id == KEY_ID_NONE)
                                           	MOVAI	0x00
                                           	ORAR	_key_scan_last_key_id_65536_33
                                           	JBSET	PFLAG,2
                                           	GOTO	_00230_DS_
                                           ;	.line	436; "MC32P7351.c"	press_cnt = 0;
                                           	CLRR	_key_scan_press_cnt_65536_33
                                           	GOTO	_00253_DS_
                                           _00230_DS_
                                           ;	.line	438; "MC32P7351.c"	else if (cur_key_id == KEY_ID_NONE)
                                           	MOVAI	0x00
                                           	ORAR	_key_scan_cur_key_id_65536_33
                                           	JBSET	PFLAG,2
                                           	GOTO	_00253_DS_
                                           ;;unsigned compare: left < lit(0x4B=75), size=1
                                           ;	.line	441; "MC32P7351.c"	if (press_cnt < 75)
                                           	MOVAI	0x4b
                                           	RSUBAR	_key_scan_press_cnt_65536_33
                                           	JBCLR	PFLAG,0
                                           	GOTO	_00225_DS_
                                           ;;genSkipc:3291: created from rifx:013B5EFC
                                           ;	.line	444; "MC32P7351.c"	if (KEY_ID_MODE == last_key_id)
                                           	MOVAR	_key_scan_last_key_id_65536_33
                                           	XORAI	0x01
                                           	JBSET	PFLAG,2
                                           	GOTO	_00220_DS_
                                           ;	.line	447; "MC32P7351.c"	key_event = KEY_EVENT_MODE_PRESS;
                                           	MOVAI	0x02
                                           	MOVRA	_key_event
                                           	GOTO	_00253_DS_
                                           _00220_DS_
                                           ;	.line	453; "MC32P7351.c"	else if (KEY_ID_HEAT == last_key_id)
                                           	MOVAR	_key_scan_last_key_id_65536_33
                                           	XORAI	0x02
                                           	JBSET	PFLAG,2
                                           	GOTO	_00253_DS_
                                           ;	.line	456; "MC32P7351.c"	key_event = KEY_EVENT_HEAT_PRESS;
                                           	MOVAI	0x01
                                           	MOVRA	_key_event
                                           	GOTO	_00253_DS_
                                           _00225_DS_
                                           ;	.line	464; "MC32P7351.c"	if (KEY_ID_MODE == last_key_id)
                                           	MOVAR	_key_scan_last_key_id_65536_33
                                           	XORAI	0x01
                                           	JBSET	PFLAG,2
                                           	GOTO	_00253_DS_
                                           ;	.line	466; "MC32P7351.c"	flag_is_key_mode_hold = 0;
                                           	CLRR	_key_scan_flag_is_key_mode_hold_65536_33
                                           	GOTO	_00253_DS_
                                           _00252_DS_
                                           ;	.line	471; "MC32P7351.c"	else if (cur_key_id != KEY_ID_NONE)
                                           	MOVAI	0x00
                                           	ORAR	_key_scan_cur_key_id_65536_33
                                           	JBCLR	PFLAG,2
                                           	GOTO	_00253_DS_
                                           ;;unsigned compare: left < lit(0xFF=255), size=1
                                           ;	.line	474; "MC32P7351.c"	if (press_cnt < 255)
                                           	MOVAI	0xff
                                           	RSUBAR	_key_scan_press_cnt_65536_33
                                           	JBCLR	PFLAG,0
                                           	GOTO	_00233_DS_
                                           ;;genSkipc:3291: created from rifx:013B5EFC
                                           ;	.line	475; "MC32P7351.c"	press_cnt++;
                                           	INCR	_key_scan_press_cnt_65536_33
                                           _00233_DS_
                                           ;	.line	477; "MC32P7351.c"	if (KEY_ID_MODE == cur_key_id)
                                           	MOVAR	_key_scan_cur_key_id_65536_33
                                           	XORAI	0x01
                                           	JBSET	PFLAG,2
                                           	GOTO	_00253_DS_
                                           ;	.line	479; "MC32P7351.c"	if (FLAG_IS_DEVICE_OPEN)
                                           	JBSET	_flag1,0
                                           	GOTO	_00245_DS_
                                           ;;unsigned compare: left < lit(0xC8=200), size=1
                                           ;	.line	481; "MC32P7351.c"	if (press_cnt >= 200) // 2000ms
                                           	MOVAI	0xc8
                                           	RSUBAR	_key_scan_press_cnt_65536_33
                                           	JBSET	PFLAG,0
                                           	GOTO	_00253_DS_
                                           ;;genSkipc:3291: created from rifx:013B5EFC
                                           ;	.line	483; "MC32P7351.c"	if (flag_is_key_mode_hold)
                                           	MOVAI	0x00
                                           	ORAR	_key_scan_flag_is_key_mode_hold_65536_33
                                           	JBSET	PFLAG,2
                                           	GOTO	_00253_DS_
                                           ;	.line	488; "MC32P7351.c"	key_event = KEY_EVENT_MODE_HOLD;
                                           	MOVAI	0x03
                                           	MOVRA	_key_event
                                           ;	.line	489; "MC32P7351.c"	flag_is_key_mode_hold = 1;
                                           	MOVAI	0x01
                                           	MOVRA	_key_scan_flag_is_key_mode_hold_65536_33
                                           	GOTO	_00253_DS_
                                           ;;unsigned compare: left < lit(0x64=100), size=1
                                           _00245_DS_
                                           ;	.line	496; "MC32P7351.c"	if (press_cnt >= 100) // 1000ms加上看门狗唤醒的1024ms
                                           	MOVAI	0x64
                                           	RSUBAR	_key_scan_press_cnt_65536_33
                                           	JBSET	PFLAG,0
                                           	GOTO	_00253_DS_
                                           ;;genSkipc:3291: created from rifx:013B5EFC
                                           ;	.line	498; "MC32P7351.c"	if (flag_is_key_mode_hold)
                                           	MOVAI	0x00
                                           	ORAR	_key_scan_flag_is_key_mode_hold_65536_33
                                           	JBSET	PFLAG,2
                                           	GOTO	_00253_DS_
                                           ;	.line	503; "MC32P7351.c"	key_event = KEY_EVENT_MODE_HOLD;
                                           	MOVAI	0x03
                                           	MOVRA	_key_event
                                           ;	.line	504; "MC32P7351.c"	flag_is_key_mode_hold = 1;
                                           	MOVAI	0x01
                                           	MOVRA	_key_scan_flag_is_key_mode_hold_65536_33
                                           _00253_DS_
                                           ;	.line	511; "MC32P7351.c"	last_key_id = cur_key_id;
                                           	MOVAR	_key_scan_cur_key_id_65536_33
                                           	MOVRA	_key_scan_last_key_id_65536_33
                                           _00254_DS_
                                           ;	.line	512; "MC32P7351.c"	}
                                           	RETURN	
                                           ; exit point of _key_scan
                                           
                                           ;***
                                           ;  pBlock Stats: dbName = C
                                           ;***
                                           ;entry:  _Sys_Init	;Function start
                                           ; 2 exit points
                                           ;has an exit
                                           ;functions called:
                                           ;   _CLR_RAM
                                           ;   _adc_config
                                           ;   _delay_ms
                                           ;   _CLR_RAM
                                           ;   _adc_config
                                           ;   _delay_ms
                                           ;1 compiler assigned register :
                                           ;   STK00
                                           ;; Starting pCode block
                                           _Sys_Init	;Function start
                                           ; 2 exit points
                                           ;	.line	278; "MC32P7351.c"	GIE = 0;
                                           	BCLR	_MCRbits,7
                                           ;	.line	279; "MC32P7351.c"	CLR_RAM();
                                           	CALL	_CLR_RAM
                                           ;	.line	282; "MC32P7351.c"	IOP0 = 0x00;   // io口数据位
                                           	CLRR	_IOP0
                                           ;	.line	283; "MC32P7351.c"	OEP0 = 0x3F;   // io口方向 1:out  0:in
                                           	MOVAI	0x3f
                                           	MOVRA	_OEP0
                                           ;	.line	284; "MC32P7351.c"	PUP0 = 0x00;   // io口上拉电阻   1:enable  0:disable
                                           	CLRR	_PUP0
                                           ;	.line	285; "MC32P7351.c"	PDP0 = 0x00;   // io口下拉电阻   1:enable  0:disable
                                           	CLRR	_PDP0
                                           ;	.line	286; "MC32P7351.c"	ADIOS0 = 0x00; // io类型选择  1:模拟输入  0:通用io
                                           	CLRR	_ADIOS0
                                           ;	.line	288; "MC32P7351.c"	IOP1 = 0x00;   // io口数据位
                                           	CLRR	_IOP1
                                           ;	.line	289; "MC32P7351.c"	OEP1 = 0xFF;   // io口方向 1:out  0:in
                                           	MOVAI	0xff
                                           	MOVRA	_OEP1
                                           ;	.line	290; "MC32P7351.c"	PUP1 = 0x00;   // io口上拉电阻   1:enable  0:disable
                                           	CLRR	_PUP1
                                           ;	.line	291; "MC32P7351.c"	PDP1 = 0x00;   // io口下拉电阻   1:enable  0:disable
                                           	CLRR	_PDP1
                                           ;	.line	292; "MC32P7351.c"	ADIOS1 = 0x00; // io类型选择  1:模拟输入  0:通用io
                                           	CLRR	_ADIOS1
                                           ;	.line	299; "MC32P7351.c"	PMOD = 0x00;  // P00、P01、P13 io端口值从寄存器读，推挽输出
                                           	CLRR	_PMOD
                                           ;	.line	300; "MC32P7351.c"	DRVCR = 0x80; // 普通驱动
                                           	MOVAI	0x80
                                           	MOVRA	_DRVCR
                                           ;	.line	303; "MC32P7351.c"	LED_WORKING_OFF();
                                           	BSET	_IOP1bits,4
                                           ;	.line	304; "MC32P7351.c"	LED_FULL_CHARGE_OFF();
                                           	BSET	_IOP0bits,3
                                           ;	.line	305; "MC32P7351.c"	LED_CHARGING_OFF();
                                           	BSET	_IOP0bits,4
                                           ;	.line	309; "MC32P7351.c"	T0LOAD = 172 - 1;
                                           	MOVAI	0xab
                                           	MOVRA	_T0LOAD
                                           ;	.line	311; "MC32P7351.c"	PWM0EC = 0;  // 禁止PWM输出
                                           	BCLR	_T0CRbits,6
                                           ;	.line	312; "MC32P7351.c"	T0CR = 0x81; // 使能定时器，时钟源为FCPU，2分频
                                           	MOVAI	0x81
                                           	MOVRA	_T0CR
                                           ;	.line	319; "MC32P7351.c"	T1LOAD = 172 - 1;
                                           	MOVAI	0xab
                                           	MOVRA	_T1LOAD
                                           ;	.line	321; "MC32P7351.c"	PWM1EC = 0;  // 禁止PWM1输出
                                           	BCLR	_T1CRbits,6
                                           ;	.line	322; "MC32P7351.c"	T1CR = 0x81; // 使能定时器，时钟源为FCPU，2分频
                                           	MOVAI	0x81
                                           	MOVRA	_T1CR
                                           ;	.line	327; "MC32P7351.c"	T2CKS0 = 1;
                                           	BSET	_T2CRbits,3
                                           ;	.line	328; "MC32P7351.c"	T2CKS1 = 0;
                                           	BCLR	_T2CRbits,4
                                           ;	.line	333; "MC32P7351.c"	TMRCKS0 = 0;
                                           	BCLR	_PWMCR1bits,3
                                           ;	.line	334; "MC32P7351.c"	TMRCKS1 = 0;
                                           	BCLR	_PWMCR1bits,4
                                           ;	.line	339; "MC32P7351.c"	T2LOAD = 209; //
                                           	MOVAI	0xd1
                                           	MOVRA	_T2LOAD
                                           ;	.line	341; "MC32P7351.c"	T2DATA = 0;
                                           	CLRR	_T2DATA
                                           ;	.line	342; "MC32P7351.c"	PWM2EC = 0; // 禁止PWM输出
                                           	BCLR	_T2CRbits,6
                                           ;	.line	344; "MC32P7351.c"	T2EN = 1;
                                           	BSET	_T2CRbits,7
                                           ;	.line	353; "MC32P7351.c"	T3LOAD = 25 - 1; //
                                           	MOVAI	0x18
                                           	MOVRA	_T3LOAD
                                           ;	.line	354; "MC32P7351.c"	T3CR = 0x85;     // 使能定时器，时钟源选择FCPU，32分频
                                           	MOVAI	0x85
                                           	MOVRA	_T3CR
                                           ;	.line	355; "MC32P7351.c"	T3IE = 1;
                                           	BSET	_INTEbits,7
                                           ;	.line	361; "MC32P7351.c"	P11PU = 1; // 上拉
                                           	BSET	_PUP1bits,1
                                           ;	.line	362; "MC32P7351.c"	P11OE = 0; // 输入模式
                                           	BCLR	_OEP1bits,1
                                           ;	.line	365; "MC32P7351.c"	P01PU = 1; // 上拉
                                           	BSET	_PUP0bits,1
                                           ;	.line	366; "MC32P7351.c"	P01OE = 0; // 输入模式
                                           	BCLR	_OEP0bits,1
                                           ;	.line	368; "MC32P7351.c"	adc_config();
                                           	CALL	_adc_config
                                           ;	.line	370; "MC32P7351.c"	GIE = 1;
                                           	BSET	_MCRbits,7
                                           ;	.line	372; "MC32P7351.c"	delay_ms(1); // 等待系统稳定
                                           	MOVAI	0x01
                                           	MOVRA	STK00
                                           	MOVAI	0x00
                                           	CALL	_delay_ms
                                           ;	.line	373; "MC32P7351.c"	}
                                           	RETURN	
                                           ; exit point of _Sys_Init
                                           
                                           ;***
                                           ;  pBlock Stats: dbName = C
                                           ;***
                                           ;entry:  _adc_get_val	;Function start
                                           ; 2 exit points
                                           ;has an exit
                                           ;16 compiler assigned registers:
                                           ;   r0x104E
                                           ;   r0x104F
                                           ;   r0x1050
                                           ;   r0x1051
                                           ;   r0x1052
                                           ;   r0x1053
                                           ;   r0x1054
                                           ;   r0x1055
                                           ;   r0x1056
                                           ;   r0x1057
                                           ;   r0x1058
                                           ;   r0x1059
                                           ;   r0x105A
                                           ;   r0x105B
                                           ;   r0x105C
                                           ;   STK00
                                           ;; Starting pCode block
                                           _adc_get_val	;Function start
                                           ; 2 exit points
                                           ;	.line	184; "MC32P7351.c"	u32 g_tmpbuff = 0;
                                           	CLRR	r0x104E
                                           	CLRR	r0x104F
                                           	CLRR	r0x1050
                                           	CLRR	r0x1051
                                           ;	.line	185; "MC32P7351.c"	u16 g_adcmax = 0;
                                           	CLRR	r0x1052
                                           	CLRR	r0x1053
                                           ;	.line	186; "MC32P7351.c"	u16 g_adcmin = 0xFFFF;
                                           	MOVAI	0xff
                                           	MOVRA	r0x1054
                                           	MOVRA	r0x1055
                                           ;	.line	189; "MC32P7351.c"	for (i = 0; i < 20; i++)
                                           	CLRR	r0x1056
                                           _00158_DS_
                                           ;	.line	191; "MC32P7351.c"	ADEOC = 0; // 清除ADC转换完成标志位，启动AD转换
                                           	BCLR	_ADCR0bits,1
                                           _00147_DS_
                                           ;	.line	192; "MC32P7351.c"	while (!ADEOC)
                                           	JBSET	_ADCR0bits,1
                                           	GOTO	_00147_DS_
                                           ;	.line	194; "MC32P7351.c"	g_temp_value = ADRH; // 取出转换后的值
                                           	MOVAR	_ADRH
                                           	MOVRA	r0x1057
                                           	CLRR	r0x1058
                                           ;	.line	195; "MC32P7351.c"	g_temp_value = g_temp_value << 4 | (ADRL & 0x0F);
                                           	SWAPAR	r0x1058
                                           	ANDAI	0xf0
                                           	MOVRA	r0x1059
                                           	SWAPAR	r0x1057
                                           	MOVRA	r0x105A
                                           	ANDAI	0x0f
                                           	ORRA	r0x1059
                                           	XORRA	r0x105A
                                           	MOVAR	_ADRL
                                           	MOVRA	r0x1057
                                           	CLRR	r0x1058
                                           	MOVAI	0x0f
                                           	ANDRA	r0x1057
                                           	CLRR	r0x1058
                                           ;;114	MOVAR	r0x1057
                                           	MOVAI	0x00
                                           	MOVRA	r0x105C
                                           ;;113	MOVAR	r0x105B
                                           	MOVAR	r0x1057
                                           	MOVRA	r0x105B
                                           	ORAR	r0x105A
                                           	MOVRA	r0x1057
                                           	MOVAR	r0x105C
                                           	ORAR	r0x1059
                                           	MOVRA	r0x1058
                                           ;;unsigned compare: left < lit(0x2=2), size=1
                                           ;	.line	196; "MC32P7351.c"	if (i < 2)
                                           	MOVAI	0x02
                                           	RSUBAR	r0x1056
                                           	JBSET	PFLAG,0
                                           	GOTO	_00156_DS_
                                           ;;genSkipc:3291: created from rifx:013B5EFC
                                           ;	.line	198; "MC32P7351.c"	if (g_temp_value > g_adcmax)
                                           	MOVAR	r0x1058
                                           	RSUBAR	r0x1053
                                           	JBSET	PFLAG,2
                                           	GOTO	_00198_DS_
                                           	MOVAR	r0x1057
                                           	RSUBAR	r0x1052
                                           _00198_DS_
                                           	JBCLR	PFLAG,0
                                           	GOTO	_00153_DS_
                                           ;;genSkipc:3291: created from rifx:013B5EFC
                                           ;	.line	199; "MC32P7351.c"	g_adcmax = g_temp_value; // 最大
                                           	MOVAR	r0x1057
                                           	MOVRA	r0x1052
                                           	MOVAR	r0x1058
                                           	MOVRA	r0x1053
                                           _00153_DS_
                                           ;	.line	200; "MC32P7351.c"	if (g_temp_value < g_adcmin)
                                           	MOVAR	r0x1055
                                           	RSUBAR	r0x1058
                                           	JBSET	PFLAG,2
                                           	GOTO	_00199_DS_
                                           	MOVAR	r0x1054
                                           	RSUBAR	r0x1057
                                           _00199_DS_
                                           	JBCLR	PFLAG,0
                                           	GOTO	_00155_DS_
                                           ;;genSkipc:3291: created from rifx:013B5EFC
                                           ;	.line	201; "MC32P7351.c"	g_adcmin = g_temp_value; // 最小
                                           	MOVAR	r0x1057
                                           	MOVRA	r0x1054
                                           	MOVAR	r0x1058
                                           	MOVRA	r0x1055
                                           ;;110	MOVAR	r0x1057
                                           ;;112	MOVAR	r0x1058
                                           _00155_DS_
                                           ;	.line	202; "MC32P7351.c"	g_tmpbuff += g_temp_value;
                                           	CLRR	r0x105B
                                           	CLRR	r0x105C
                                           ;;109	MOVAR	r0x105A
                                           	MOVAR	r0x1057
                                           	MOVRA	r0x105A
                                           	ADDRA	r0x104E
                                           ;;111	MOVAR	r0x1059
                                           	MOVAR	r0x1058
                                           	MOVRA	r0x1059
                                           	JBCLR	PFLAG,0
                                           	JZAR	r0x1059
                                           	ADDRA	r0x104F
                                           	MOVAR	r0x105B
                                           	JBCLR	PFLAG,0
                                           	JZAR	r0x105B
                                           	ADDRA	r0x1050
                                           	MOVAR	r0x105C
                                           	JBCLR	PFLAG,0
                                           	JZAR	r0x105C
                                           	ADDRA	r0x1051
                                           _00156_DS_
                                           ;	.line	189; "MC32P7351.c"	for (i = 0; i < 20; i++)
                                           	INCR	r0x1056
                                           ;;unsigned compare: left < lit(0x14=20), size=1
                                           	MOVAI	0x14
                                           	RSUBAR	r0x1056
                                           	JBSET	PFLAG,0
                                           	GOTO	_00158_DS_
                                           ;;genSkipc:3291: created from rifx:013B5EFC
                                           ;;108	MOVAR	r0x1052
                                           ;	.line	204; "MC32P7351.c"	g_tmpbuff -= g_adcmax;           // 去掉一个最大
                                           	MOVAR	r0x1053
                                           	MOVRA	r0x1057
                                           	CLRR	r0x1058
                                           	CLRR	r0x105A
                                           ;;107	MOVAR	r0x1056
                                           	MOVAR	r0x1052
                                           	MOVRA	r0x1056
                                           	RSUBAR	r0x104E
                                           	MOVRA	r0x1052
                                           	MOVAR	r0x104F
                                           	MOVRA	r0x1053
                                           	MOVAR	r0x1057
                                           	JBSET	PFLAG,0
                                           	JZAR	r0x1057
                                           	RSUBRA	r0x1053
                                           	MOVAR	r0x1050
                                           	MOVRA	r0x1059
                                           	MOVAR	r0x1058
                                           	JBSET	PFLAG,0
                                           	JZAR	r0x1058
                                           	RSUBRA	r0x1059
                                           	MOVAR	r0x105A
                                           	JBSET	PFLAG,0
                                           	INCAR	r0x105A
                                           	RSUBAR	r0x1051
                                           	MOVRA	r0x105B
                                           ;;100	MOVAR	r0x1054
                                           ;;102	MOVAR	r0x1055
                                           ;	.line	205; "MC32P7351.c"	g_tmpbuff -= g_adcmin;           // 去掉一个最小
                                           	CLRR	r0x1050
                                           	CLRR	r0x1051
                                           ;;99	MOVAR	r0x104E
                                           	MOVAR	r0x1054
                                           	MOVRA	r0x104E
                                           	RSUBRA	r0x1052
                                           ;;101	MOVAR	r0x104F
                                           	MOVAR	r0x1055
                                           	MOVRA	r0x104F
                                           	JBSET	PFLAG,0
                                           	JZAR	r0x104F
                                           	RSUBRA	r0x1053
                                           	MOVAR	r0x1050
                                           	JBSET	PFLAG,0
                                           	JZAR	r0x1050
                                           	RSUBRA	r0x1059
                                           	MOVAR	r0x1051
                                           	JBSET	PFLAG,0
                                           	JZAR	r0x1051
                                           	RSUBRA	r0x105B
                                           ;	.line	206; "MC32P7351.c"	g_temp_value = (g_tmpbuff >> 4); // 除以16，取平均值
                                           	SWAPAR	r0x1052
                                           	ANDAI	0x0f
                                           	MOVRA	r0x104E
                                           	SWAPAR	r0x1053
                                           	MOVRA	r0x104F
                                           	ANDAI	0xf0
                                           	ORRA	r0x104E
                                           	XORRA	r0x104F
                                           	SWAPAR	r0x1059
                                           	MOVRA	r0x1050
                                           	ANDAI	0xf0
                                           	ORRA	r0x104F
                                           	XORRA	r0x1050
                                           	SWAPAR	r0x105B
                                           	MOVRA	r0x1051
                                           	ANDAI	0xf0
                                           	ORRA	r0x1050
                                           	XORRA	r0x1051
                                           ;;104	MOVAR	r0x104E
                                           ;;106	MOVAR	r0x104F
                                           ;;103	MOVAR	r0x1052
                                           ;	.line	230; "MC32P7351.c"	return g_temp_value;
                                           	MOVAR	r0x104E
                                           	MOVRA	r0x1052
                                           	MOVRA	STK00
                                           ;;105	MOVAR	r0x1053
                                           	MOVAR	r0x104F
                                           	MOVRA	r0x1053
                                           ;	.line	231; "MC32P7351.c"	}
                                           	RETURN	
                                           ; exit point of _adc_get_val
                                           
                                           ;***
                                           ;  pBlock Stats: dbName = C
                                           ;***
                                           ;entry:  _adc_sel_pin	;Function start
                                           ; 2 exit points
                                           ;has an exit
                                           ;functions called:
                                           ;   _delay_ms
                                           ;   _delay_ms
                                           ;2 compiler assigned registers:
                                           ;   r0x1054
                                           ;   STK00
                                           ;; Starting pCode block
                                           _adc_sel_pin	;Function start
                                           ; 2 exit points
                                           ;	.line	145; "MC32P7351.c"	void adc_sel_pin(u8 adc_pin)
                                           	MOVRA	r0x1054
                                           ;	.line	148; "MC32P7351.c"	switch (adc_pin)
                                           	MOVAR	r0x1054
                                           	XORAI	0x01
                                           	JBSET	PFLAG,2
                                           	GOTO	_00141_DS_
                                           	GOTO	_00127_DS_
                                           _00141_DS_
                                           	MOVAR	r0x1054
                                           	XORAI	0x02
                                           	JBSET	PFLAG,2
                                           	GOTO	_00142_DS_
                                           	GOTO	_00128_DS_
                                           _00142_DS_
                                           	GOTO	_00130_DS_
                                           _00127_DS_
                                           ;	.line	151; "MC32P7351.c"	ADCR0 &= ~(0x0F << 4); // 清空寄存器的通道选择位
                                           	MOVAI	0x0f
                                           	ANDRA	_ADCR0
                                           ;	.line	159; "MC32P7351.c"	break;
                                           	GOTO	_00130_DS_
                                           _00128_DS_
                                           ;	.line	162; "MC32P7351.c"	ADCR0 &= ~(0x0F << 4); // 清空寄存器的通道选择位
                                           	MOVAI	0x0f
                                           	ANDRA	_ADCR0
                                           ;	.line	163; "MC32P7351.c"	ADCR0 |= 0x01 << 4;    // AIN1--P02;
                                           	BSET	_ADCR0,4
                                           _00130_DS_
                                           ;	.line	176; "MC32P7351.c"	delay_ms(1); // 切换adc检测的引脚后，要延时一段时间，等待adc稳定，防止意料之外的检测结果
                                           	MOVAI	0x01
                                           	MOVRA	STK00
                                           	MOVAI	0x00
                                           	CALL	_delay_ms
                                           ;	.line	177; "MC32P7351.c"	}
                                           	RETURN	
                                           ; exit point of _adc_sel_pin
                                           
                                           ;***
                                           ;  pBlock Stats: dbName = C
                                           ;***
                                           ;entry:  _adc_config	;Function start
                                           ; 2 exit points
                                           ;has an exit
                                           ;; Starting pCode block
                                           _adc_config	;Function start
                                           ; 2 exit points
                                           ;	.line	62; "MC32P7351.c"	P00OE = 0; // 输入模式
                                           	BCLR	_OEP0bits,0
                                           ;	.line	63; "MC32P7351.c"	P00DC = 1; // 模拟模式
                                           	BSET	_ADIOS0bits,0
                                           ;	.line	66; "MC32P7351.c"	P02OE = 0; // 输入模式
                                           	BCLR	_OEP0bits,2
                                           ;	.line	67; "MC32P7351.c"	P02DC = 1; // 模拟模式
                                           	BSET	_ADIOS0bits,1
                                           ;	.line	69; "MC32P7351.c"	ADCR0 = 0x0A; // 12位精度、不启用ADC转换，不使能ADC
                                           	MOVAI	0x0a
                                           	MOVRA	_ADCR0
                                           ;	.line	70; "MC32P7351.c"	ADCR1 = 0xE1; // 125K采样（最高精度）  内部3V参考电压
                                           	MOVAI	0xe1
                                           	MOVRA	_ADCR1
                                           ;	.line	71; "MC32P7351.c"	ADCR2 = 0xFF; // ADC采样时间为15个ADC时钟
                                           	MOVAI	0xff
                                           	MOVRA	_ADCR2
                                           ;	.line	72; "MC32P7351.c"	ADEN = 1;     // 使能ADC
                                           	BSET	_ADCR0bits,0
                                           ;	.line	73; "MC32P7351.c"	}
                                           	RETURN	
                                           ; exit point of _adc_config
                                           
                                           ;***
                                           ;  pBlock Stats: dbName = C
                                           ;***
                                           ;entry:  _CLR_RAM	;Function start
                                           ; 2 exit points
                                           ;has an exit
                                           ;; Starting pCode block
                                           _CLR_RAM	;Function start
                                           ; 2 exit points
                                           ;	.line	22; "MC32P7351.c"	for (FSR0 = 0; FSR0 < 0xff; FSR0++)
                                           	CLRR	_FSR0
                                           ;;unsigned compare: left < lit(0xFF=255), size=1
                                           _00118_DS_
                                           	MOVAI	0xff
                                           	RSUBAR	_FSR0
                                           	JBCLR	PFLAG,0
                                           	GOTO	_00116_DS_
                                           ;;genSkipc:3291: created from rifx:013B5EFC
                                           ;	.line	24; "MC32P7351.c"	INDF0 = 0x00;
                                           	CLRR	_INDF0
                                           ;	.line	22; "MC32P7351.c"	for (FSR0 = 0; FSR0 < 0xff; FSR0++)
                                           	INCR	_FSR0
                                           	GOTO	_00118_DS_
                                           _00116_DS_
                                           ;	.line	26; "MC32P7351.c"	FSR0 = 0xFF;
                                           	MOVAI	0xff
                                           	MOVRA	_FSR0
                                           ;	.line	27; "MC32P7351.c"	INDF0 = 0x00;
                                           	CLRR	_INDF0
                                           ;	.line	28; "MC32P7351.c"	}
                                           	RETURN	
                                           ; exit point of _CLR_RAM
                                           
                                           ;***
                                           ;  pBlock Stats: dbName = C
                                           ;***
                                           ;entry:  _delay_ms	;Function start
                                           ; 2 exit points
                                           ;has an exit
                                           ;7 compiler assigned registers:
                                           ;   r0x104E
                                           ;   STK00
                                           ;   r0x104F
                                           ;   r0x1050
                                           ;   r0x1051
                                           ;   r0x1052
                                           ;   r0x1053
                                           ;; Starting pCode block
                                           _delay_ms	;Function start
                                           ; 2 exit points
                                           ;	.line	368; "user.h"	void delay_ms(u16 xms)
                                           	MOVRA	r0x104E
                                           	MOVAR	STK00
                                           	MOVRA	r0x104F
                                           _00108_DS_
                                           ;	.line	370; "user.h"	while (xms)
                                           	MOVAR	r0x104F
                                           	ORAR	r0x104E
                                           	JBCLR	PFLAG,2
                                           	GOTO	_00111_DS_
                                           ;	.line	373; "user.h"	while (i--)
                                           	MOVAI	0x3c
                                           	MOVRA	r0x1050
                                           	MOVAI	0x02
                                           	MOVRA	r0x1051
                                           _00105_DS_
                                           	MOVAR	r0x1050
                                           	MOVRA	r0x1052
                                           	MOVAR	r0x1051
                                           	MOVRA	r0x1053
                                           	MOVAI	0xff
                                           	ADDRA	r0x1050
                                           	JBSET	PFLAG,0
                                           	DECR	r0x1051
                                           	MOVAR	r0x1052
                                           	ORAR	r0x1053
                                           	JBCLR	PFLAG,2
                                           	GOTO	_00107_DS_
                                           ;	.line	375; "user.h"	Nop();
                                           	nop	
                                           	GOTO	_00105_DS_
                                           _00107_DS_
                                           ;	.line	377; "user.h"	xms--; // 把 --操作放在while()判断条件外面，更节省空间
                                           	MOVAI	0xff
                                           	ADDRA	r0x104F
                                           	JBSET	PFLAG,0
                                           	DECR	r0x104E
                                           ;	.line	381; "user.h"	__endasm;
                                           	;
                                           	clrwdt;
                                           	
                                           	GOTO	_00108_DS_
                                           _00111_DS_
                                           ;	.line	383; "user.h"	}
                                           	RETURN	
                                           ; exit point of _delay_ms
                                           
                                           
                                           ;	code size estimation:
                                           ;	 1741+    0 =  1741 instructions ( 3482 byte)
                                           
                                           	end


MEMORY USAGE MAP ('X' = Used,  '-' = Unused)

0000 : XX-------------- XXXXXXXXXXXXXXXX XXXXXXXXXXXXXXXX XXXXXXXXXXXXXXXX
0040 : XXXXXXXXXXXXXXXX XXXXXXXXXXXXXXXX XXXXXXXXXXXXXXXX XXXXXXXXXXXXXXXX
0080 : XXXXXXXXXXXXXXXX XXXXXXXXXXXXXXXX XXXXXXXXXXXXXXXX XXXXXXXXXXXXXXXX
00C0 : XXXXXXXXXXXXXXXX XXXXXXXXXXXXXXXX XXXXXXXXXXXXXXXX XXXXXXXXXXXXXXXX
0100 : XXXXXXXXXXXXXXXX XXXXXXXXXXXXXXXX XXXXXXXXXXXXXXXX XXXXXXXXXXXXXXXX
0140 : XXXXXXXXXXXXXXXX XXXXXXXXXXXXXXXX XXXXXXXXXXXXXXXX XXXXXXXXXXXXXXXX
0180 : XXXXXXXXXXXXXXXX XXXXXXXXXXXXXXXX XXXXXXXXXXXXXXXX XXXXXXXXXXXXXXXX
01C0 : XXXXXXXXXXXXXXXX XXXXXXXXXXXXXXXX XXXXXXXXXXXXXXXX XXXXXXXXXXXXXXXX
0200 : XXXXXXXXXXXXXXXX XXXXXXXXXXXXXXXX XXXXXXXXXXXXXXXX XXXXXXXXXXXXXXXX
0240 : XXXXXXXXXXXXXXXX XXXXXXXXXXXXXXXX XXXXXXXXXXXXXXXX XXXXXXXXXXXXXXXX
0280 : XXXXXXXXXXXXXXXX XXXXXXXXXXXXXXXX XXXXXXXXXXXXXXXX XXXXXXXXXXXXXXXX
02C0 : XXXXXXXXXXXXXXXX XXXXXXXXXXXXXXXX XXXXXXXXXXXXXXXX XXXXXXXXXXXXXXXX
0300 : XXXXXXXXXXXXXXXX XXXXXXXXXXXXXXXX XXXXXXXXXXXXXXXX XXXXXXXXXXXXXXXX
0340 : XXXXXXXXXXXXXXXX XXXXXXXXXXXXXXXX XXXXXXXXXXXXXXXX XXXXXXXXXXXXXXXX
0380 : XXXXXXXXXXXXXXXX XXXXXXXXXXXXXXXX XXXXXXXXXXXXXXXX XXXXXXXXXXXXXXXX
03C0 : XXXXXXXXXXXXXXXX XXXXXXXXXXXXXXXX XXXXXXXXXXXXXXXX XXXXXXXXXXXXXXXX
0400 : XXXXXXXXXXXXXXXX XXXXXXXXXXXXXXXX XXXXXXXXXXXXXXXX XXXXXXXXXXXXXXXX
0440 : XXXXXXXXXXXXXXXX XXXXXXXXXXXXXXXX XXXXXXXXXXXXXXXX XXXXXXXXXXXXXXXX
0480 : XXXXXXXXXXXXXXXX XXXXXXXXXXXXXXXX XXXXXXXXXXXXXXXX XXXXXXXXXXXXXXXX
04C0 : XXXXXXXXXXXXXXXX XXXXXXXXXXXXXXXX XXXXXXXXXXXXXXXX XXXXXXXXXXXXXXXX
0500 : XXXXXXXXXXXXXXXX XXXXXXXXXXXXXXXX XXXXXXXXXXXXXXXX XXXXXXXXXXXXXXXX
0540 : XXXXXXXXXXXXXXXX XXXXXXXXXXXXXXXX XXXXXXXXXXXXXXXX XXXXXXXXXXXXXXXX
0580 : XXXXXXXXXXXXXXXX XXXXXXXXXXXXXXXX XXXXXXXXXXXXXXXX XXXXXXXXXXXXXXXX
05C0 : XXXXXXXXXXXXXXXX XXXXXXXXXXXXXXXX XXXXXXXXXXXXXXXX XXXXXXXXXXXXXXXX
0600 : XXXXXXXXXXXXXXXX XXXXXXXXXXXXXXXX XXXXXXXXXXXXXXXX XXXXXXXXXXXXXXXX
0640 : XXXXXXXXXXXXXXXX XXXXXXXXXXXXXXXX XXXXXXXXXXXXXXXX XXXXXXXXXXXXXXXX
0680 : XXXXXXXXXXXXXXXX XXXXXXXXXXXXXXXX XXXXXXXXXXXXXXXX XXXXXXXXXXXXXXXX
06C0 : XXXXXXXXXXXXXXXX XXXXXXXXXXXXXXXX XXXXXXXXXXXXXXXX XXXXXXXXXXXXXXXX
0700 : XXXXXXXXXXXXXXXX XXXXXXXXXXXXXXXX XXXXXXXXXXXXXXXX XXXXXXXXXXXXXXXX
0740 : XXXXXXXXXXXXXXXX XXXXXXXXXXXXXXXX XXXXXXXXXXXXXXXX XXXXXXXXXXXXXXXX
0780 : XXXXXXXXXXXXXXXX XXXXXXXXXXXXXXXX XXXXXXXXXXXXXXXX XXXXXXXXXXXXXXXX
07C0 : XXXXXXXXXXXXXXXX XXXXXXXXXXXXXXXX XXXXXXXXXXXXXXXX XXXXXXXXXXXXXXXX
0800 : XXXXXXXXXXXXXXXX XXXXXXXXXXXXXXXX XXXXXXXXXXXXXXXX XXXXXXXXXXXXXXXX
0840 : XXXXXXXXXXXXXXXX XXXXXXXXXXXXXXXX XXXXXXXXXXXXXXXX XXXXXXXXXXXXXXXX
0880 : XXXXXXXXXXXXXXXX XXXXXXXXXXXXXXXX XXXXXXXXXXXXXXXX XXXXXXXXXXXXXXXX
08C0 : XXXXXXXXXXXXXXXX XXXXXXXXXXXXXXXX XXXXXXXXXXXXXXXX XXXXXXXXXXXXXXXX
0900 : XXXXXXXXXXXXXXXX XXXXXXXXXXXXXXXX XXXXXXXXXXXXXXXX XXXXXXXXXXXXXXXX
0940 : XXXXXXXXXXXXXXXX XXXXXXXXXXXXXXXX XXXXXXXXXXXXXXXX XXXXXXXXXXXXXXXX
0980 : XXXXXXXXXXXXXXXX XXXXXXXXXXXXXXXX XXXXXXXXXXXXXXXX XXXXXXXXXXXXXXXX
09C0 : XXXXXXXXXXXXXXXX XXXXXXXXXXXXXXXX XXXXXXXXXXXXXXXX XXXXXXXXXXXXXXXX
0A00 : XXXXXXXXXXXXXXXX XXXXXXXXXXXXXXXX XXXXXXXXXXXXXXXX XXXXXXXXXXXXXXXX
0A40 : XXXXXXXXXXXXXXXX XXXXXXXXXXXXXXXX XXXXXXXXXXXXXXXX XXXXXXXXXXXXXXXX
0A80 : XXXXXXXXXXXXXXXX XXXXXXXXXXXXXXXX XXXXXXXXXXXXXXXX XXXXXXXXXXXXXXXX
0AC0 : XXXXXXXXXXXXXXXX XXXXXXXXXXXXXXXX XXXXXXXXXXXXXXXX XXXXXXXXXXXXXXXX
0B00 : XXXXXXXXXXXXXXXX XXXXXXXXXXXXXXXX XXXXXXXXXXXXXXXX XXXXXXXXXXXXXXXX
0B40 : XXXXXXXXXXXXXXXX XXXXXXXXXXXXXXXX XXXXXXXXXXXXXXXX XXXXXXXXXXXXXXXX
0B80 : XXXXXXXXXXXXXXXX XXXXXXXXXXXXXXXX XXXXXXXXXXXXXXXX XXXXXXXXXXXXXXXX
0BC0 : XXXXXXXXXXXXXXXX XXXXXXXXXXXXXXXX XXXXXXXXXXXXXXXX XXXXXXXXXXXXXXXX
0C00 : XXXXXXXXXXXXXXXX XXXXXXXXXXXXXXXX XXXXXXXXXXXXXXXX XXXXXXXXXXXXXXXX
0C40 : XXXXXXXXXXXXXXXX XXXXXXXXXXXXXXXX XXXXXXXXXXXXXXXX XXXXXXXXXXXXXXXX
0C80 : XXXXXXXXXXXXXXXX XXXXXXXXXXXXXXXX XXXXXXXXXXXXXXXX XXXXXXXXXXXXXXXX
0CC0 : XXXXXXXXXXXXXXXX XXXXXXXXXXXXXXXX XXXXXXXXXXXXXXXX XXXXXXXXXXXXXXXX
0D00 : XXXXXXXXXXXXXXXX XXXXXXXXXXXXXXXX XXXXXXXXXXXXXXXX XXXXXXXXXXXXXXXX
0D40 : XXXXXXXXXXXXXXXX XXXXXXXXXXXXXXXX XXXXXXXXXXXXXXXX XXXXXXXXXXXXXXXX
0D80 : XXXXXXXXXXXXXXXX XXXXXXXXXXXXXXXX XXXXXXXXXXXXXXXX XXXXXXXXXXXXXXXX
0DC0 : XXXXXXXXXXXXXXXX XXXXXXXXXXXXXXXX XXXXXXXXXXXXXXXX XXXXXXXXXXXXXXXX
0E00 : XXXXXXXXXXXXXXXX XXXXXXXXXXXXXXXX XXXXXXXXXXXXXXXX XXXXXXXXXXXXXXXX
0E40 : XXXXXXXXXXXXXXXX XXXXXXXXXXXXXXXX XXXXXXXXXXXXXXXX XXXXXXXXXXXXXXXX
0E80 : XXXXXXXXXXXXXXXX XXXXXXXXXXXXXXXX XXXXXXXXXXXXXXXX XXXXXXXXXXXXXXXX
0EC0 : XXXXXXXXXXXXXXXX XXXXXXXXXXXXXXXX XXXXXXXXXXXXXXXX XXXXXXXXXXXXXXXX
0F00 : XXXXXXXXXXXXXXXX XXXXXXXXXXXXXXXX XXXXXXXXXXXXXXXX XXXXXXXXXXXXXXXX
0F40 : XXXXXXXXXXXXXXXX XXXXXXXXXXXXXXXX XXXXXXXXXXXXXXXX XXXXXXXXXXXXXXXX
0F80 : XXXXXXXXXXXXXXXX XXXXXXXXXXXXXXXX XXXXXXXXXXXXXXXX XXXXXXXXXXXXXXXX
0FC0 : XXXXXXXXXXXXXX-- ---------------- ---------------- ----------------

All other memory blocks unused.

Program Memory Words Used:  2016

